c__builtin__
set
p0
((lp1
S'http://gz.lianjia.com/chengjiao/GZ0001553950.html'
p2
aS'http://gz.lianjia.com/chengjiao/GZ0002087118.html'
p3
aS'http://gz.lianjia.com/chengjiao/GZ0001965622.html'
p4
aS'http://gz.lianjia.com/chengjiao/GZ0002124230.html'
p5
aS'http://gz.lianjia.com/chengjiao/GZ0001596577.html'
p6
aS'http://gz.lianjia.com/chengjiao/GZ0002005302.html'
p7
aS'http://gz.lianjia.com/chengjiao/GZ0001550738.html'
p8
aS'http://gz.lianjia.com/chengjiao/GZ0002052880.html'
p9
aS'http://gz.lianjia.com/chengjiao/GZ0002125117.html'
p10
aS'http://gz.lianjia.com/chengjiao/GZ0001569489.html'
p11
aS'http://gz.lianjia.com/chengjiao/GZ0001228067.html'
p12
aS'http://gz.lianjia.com/chengjiao/GZ0001700514.html'
p13
aS'http://gz.lianjia.com/chengjiao/GZ0002329879.html'
p14
aS'http://gz.lianjia.com/chengjiao/GZ0001574052.html'
p15
aS'http://gz.lianjia.com/chengjiao/GZ0001989480.html'
p16
aS'http://gz.lianjia.com/chengjiao/GZ0002255721.html'
p17
aS'http://gz.lianjia.com/chengjiao/GZ0001465573.html'
p18
aS'http://gz.lianjia.com/chengjiao/GZ0001817538.html'
p19
aS'http://gz.lianjia.com/chengjiao/GZ0001466498.html'
p20
aS'http://gz.lianjia.com/chengjiao/GZ0002100940.html'
p21
aS'http://gz.lianjia.com/chengjiao/GZ0002360155.html'
p22
aS'http://gz.lianjia.com/chengjiao/GZ0002305055.html'
p23
aS'http://gz.lianjia.com/chengjiao/GZ0002145733.html'
p24
aS'http://gz.lianjia.com/chengjiao/GZ0001265731.html'
p25
aS'http://gz.lianjia.com/chengjiao/GZ0001802074.html'
p26
aS'http://gz.lianjia.com/chengjiao/GZ0001586434.html'
p27
aS'http://gz.lianjia.com/chengjiao/GZ0001872907.html'
p28
aS'http://gz.lianjia.com/chengjiao/GZ0001772090.html'
p29
aS'http://gz.lianjia.com/chengjiao/GZ0001767631.html'
p30
aS'http://gz.lianjia.com/chengjiao/GZ0002279883.html'
p31
aS'http://gz.lianjia.com/chengjiao/GZ0002432990.html'
p32
aS'http://gz.lianjia.com/chengjiao/GZ0001228951.html'
p33
aS'http://gz.lianjia.com/chengjiao/GZ0002556913.html'
p34
aS'http://gz.lianjia.com/chengjiao/GZ0002305733.html'
p35
aS'http://gz.lianjia.com/chengjiao/GZ0001445250.html'
p36
aS'http://gz.lianjia.com/chengjiao/GZ0001236424.html'
p37
aS'http://gz.lianjia.com/chengjiao/GZ0001817946.html'
p38
aS'http://gz.lianjia.com/chengjiao/GZ0002162994.html'
p39
aS'http://gz.lianjia.com/chengjiao/GZ0002065954.html'
p40
aS'http://gz.lianjia.com/chengjiao/GZ0001635343.html'
p41
aS'http://gz.lianjia.com/chengjiao/GZ0002368408.html'
p42
aS'http://gz.lianjia.com/chengjiao/GZ0001941275.html'
p43
aS'http://gz.lianjia.com/chengjiao/GZ0001260265.html'
p44
aS'http://gz.lianjia.com/chengjiao/GZ0001706646.html'
p45
aS'http://gz.lianjia.com/chengjiao/GZ0001768199.html'
p46
aS'http://gz.lianjia.com/chengjiao/GZ0002560221.html'
p47
aS'http://gz.lianjia.com/chengjiao/GZ0001339949.html'
p48
aS'http://gz.lianjia.com/chengjiao/GZ0002136639.html'
p49
aS'http://gz.lianjia.com/chengjiao/GZ0001653159.html'
p50
aS'http://gz.lianjia.com/chengjiao/GZ0002343186.html'
p51
aS'http://gz.lianjia.com/chengjiao/GZ0001495546.html'
p52
aS'http://gz.lianjia.com/chengjiao/GZ0001347251.html'
p53
aS'http://gz.lianjia.com/chengjiao/GZ0001793676.html'
p54
aS'http://gz.lianjia.com/chengjiao/GZ0001967709.html'
p55
aS'http://gz.lianjia.com/chengjiao/GZ0001824846.html'
p56
aS'http://gz.lianjia.com/chengjiao/GZ0001464171.html'
p57
aS'http://gz.lianjia.com/chengjiao/GZ0001529886.html'
p58
aS'http://gz.lianjia.com/chengjiao/GZ0001972148.html'
p59
aS'http://gz.lianjia.com/chengjiao/GZ0001667942.html'
p60
aS'http://gz.lianjia.com/chengjiao/GZ0001238109.html'
p61
aS'http://gz.lianjia.com/chengjiao/GZ0002260590.html'
p62
aS'http://gz.lianjia.com/chengjiao/GZ0001368721.html'
p63
aS'http://gz.lianjia.com/chengjiao/GZ0002200528.html'
p64
aS'http://gz.lianjia.com/chengjiao/GZ0002341835.html'
p65
aS'http://gz.lianjia.com/chengjiao/GZ0001272872.html'
p66
aS'http://gz.lianjia.com/chengjiao/GZ0002330860.html'
p67
aS'http://gz.lianjia.com/chengjiao/GZ0001756583.html'
p68
aS'http://gz.lianjia.com/chengjiao/GZ0002296591.html'
p69
aS'http://gz.lianjia.com/chengjiao/GZ0001897927.html'
p70
aS'http://gz.lianjia.com/chengjiao/GZ0002422941.html'
p71
aS'http://gz.lianjia.com/chengjiao/GZ0001535602.html'
p72
aS'http://gz.lianjia.com/chengjiao/GZ0001806261.html'
p73
aS'http://gz.lianjia.com/chengjiao/GZ0002166958.html'
p74
aS'http://gz.lianjia.com/chengjiao/GZ0001333391.html'
p75
aS'http://gz.lianjia.com/chengjiao/GZ0001636858.html'
p76
aS'http://gz.lianjia.com/chengjiao/GZ0001630271.html'
p77
aS'http://gz.lianjia.com/chengjiao/GZ0002269132.html'
p78
aS'http://gz.lianjia.com/chengjiao/GZ0001328379.html'
p79
aS'http://gz.lianjia.com/chengjiao/GZ0002413148.html'
p80
aS'http://gz.lianjia.com/chengjiao/GZ0001522671.html'
p81
aS'http://gz.lianjia.com/chengjiao/GZ0002192129.html'
p82
aS'http://gz.lianjia.com/chengjiao/GZ0001870776.html'
p83
aS'http://gz.lianjia.com/chengjiao/GZ0001531687.html'
p84
aS'http://gz.lianjia.com/chengjiao/GZ0002067188.html'
p85
aS'http://gz.lianjia.com/chengjiao/GZ0002339701.html'
p86
aS'http://gz.lianjia.com/chengjiao/GZ0001942703.html'
p87
aS'http://gz.lianjia.com/chengjiao/GZ0001278324.html'
p88
aS'http://gz.lianjia.com/chengjiao/GZ0002088942.html'
p89
aS'http://gz.lianjia.com/chengjiao/GZ0002317931.html'
p90
aS'http://gz.lianjia.com/chengjiao/GZ0002093615.html'
p91
aS'http://gz.lianjia.com/chengjiao/GZ0001280686.html'
p92
aS'http://gz.lianjia.com/chengjiao/GZ0002384551.html'
p93
aS'http://gz.lianjia.com/chengjiao/GZ0002225712.html'
p94
aS'http://gz.lianjia.com/chengjiao/GZ0002295395.html'
p95
aS'http://gz.lianjia.com/chengjiao/GZ0001993146.html'
p96
aS'http://gz.lianjia.com/chengjiao/GZ0002427667.html'
p97
aS'http://gz.lianjia.com/chengjiao/GZ0001675130.html'
p98
aS'http://gz.lianjia.com/chengjiao/GZ0001802003.html'
p99
aS'http://gz.lianjia.com/chengjiao/GZ0001262910.html'
p100
aS'http://gz.lianjia.com/chengjiao/GZ0001929844.html'
p101
aS'http://gz.lianjia.com/chengjiao/GZ0002407054.html'
p102
aS'http://gz.lianjia.com/chengjiao/GZ0001915308.html'
p103
aS'http://gz.lianjia.com/chengjiao/GZ0001583283.html'
p104
aS'http://gz.lianjia.com/chengjiao/GZ0001667974.html'
p105
aS'http://gz.lianjia.com/chengjiao/GZ0001589853.html'
p106
aS'http://gz.lianjia.com/chengjiao/GZ0002024459.html'
p107
aS'http://gz.lianjia.com/chengjiao/GZ0001825087.html'
p108
aS'http://gz.lianjia.com/chengjiao/GZ0001269248.html'
p109
aS'http://gz.lianjia.com/chengjiao/GZ0001667161.html'
p110
aS'http://gz.lianjia.com/chengjiao/GZ0001684010.html'
p111
aS'http://gz.lianjia.com/chengjiao/GZ0002184713.html'
p112
aS'http://gz.lianjia.com/chengjiao/GZ0001910372.html'
p113
aS'http://gz.lianjia.com/chengjiao/GZ0002287315.html'
p114
aS'http://gz.lianjia.com/chengjiao/GZ0001975329.html'
p115
aS'http://gz.lianjia.com/chengjiao/GZ0001971856.html'
p116
aS'http://gz.lianjia.com/chengjiao/GZ0001576266.html'
p117
aS'http://gz.lianjia.com/chengjiao/GZ0002442598.html'
p118
aS'http://gz.lianjia.com/chengjiao/GZ0001456068.html'
p119
aS'http://gz.lianjia.com/chengjiao/GZ0001465253.html'
p120
aS'http://gz.lianjia.com/chengjiao/GZ0002569674.html'
p121
aS'http://gz.lianjia.com/chengjiao/GZ0002330463.html'
p122
aS'http://gz.lianjia.com/chengjiao/GZ0001398371.html'
p123
aS'http://gz.lianjia.com/chengjiao/GZ0002378976.html'
p124
aS'http://gz.lianjia.com/chengjiao/GZ0002167222.html'
p125
aS'http://gz.lianjia.com/chengjiao/GZ0002082532.html'
p126
aS'http://gz.lianjia.com/chengjiao/GZ0002093443.html'
p127
aS'http://gz.lianjia.com/chengjiao/GZ0002561539.html'
p128
aS'http://gz.lianjia.com/chengjiao/GZ0001255805.html'
p129
aS'http://gz.lianjia.com/chengjiao/GZ0002308289.html'
p130
aS'http://gz.lianjia.com/chengjiao/GZ0002290609.html'
p131
aS'http://gz.lianjia.com/chengjiao/GZ0002320074.html'
p132
aS'http://gz.lianjia.com/chengjiao/GZ0002521593.html'
p133
aS'http://gz.lianjia.com/chengjiao/GZ0001684435.html'
p134
aS'http://gz.lianjia.com/chengjiao/GZ0002389004.html'
p135
aS'http://gz.lianjia.com/chengjiao/GZ0002409155.html'
p136
aS'http://gz.lianjia.com/chengjiao/GZ0002328129.html'
p137
aS'http://gz.lianjia.com/chengjiao/GZ0001273082.html'
p138
aS'http://gz.lianjia.com/chengjiao/GZ0001799883.html'
p139
aS'http://gz.lianjia.com/chengjiao/GZ0001653153.html'
p140
aS'http://gz.lianjia.com/chengjiao/GZ0002225309.html'
p141
aS'http://gz.lianjia.com/chengjiao/GZ0002247203.html'
p142
aS'http://gz.lianjia.com/chengjiao/GZ0002185779.html'
p143
aS'http://gz.lianjia.com/chengjiao/GZ0001769191.html'
p144
aS'http://gz.lianjia.com/chengjiao/GZ0001718166.html'
p145
aS'http://gz.lianjia.com/chengjiao/GZ0001813212.html'
p146
aS'http://gz.lianjia.com/chengjiao/GZ0001935483.html'
p147
aS'http://gz.lianjia.com/chengjiao/GZ0001747543.html'
p148
aS'http://gz.lianjia.com/chengjiao/GZ0002415426.html'
p149
aS'http://gz.lianjia.com/chengjiao/GZ0001260413.html'
p150
aS'http://gz.lianjia.com/chengjiao/GZ0001974933.html'
p151
aS'http://gz.lianjia.com/chengjiao/GZ0001830038.html'
p152
aS'http://gz.lianjia.com/chengjiao/GZ0001684920.html'
p153
aS'http://gz.lianjia.com/chengjiao/GZ0002411658.html'
p154
aS'http://gz.lianjia.com/chengjiao/GZ0001288791.html'
p155
aS'http://gz.lianjia.com/chengjiao/GZ0001258758.html'
p156
aS'http://gz.lianjia.com/chengjiao/GZ0001615497.html'
p157
aS'http://gz.lianjia.com/chengjiao/GZ0001768264.html'
p158
aS'http://gz.lianjia.com/chengjiao/GZ0001884297.html'
p159
aS'http://gz.lianjia.com/chengjiao/GZ0002190448.html'
p160
aS'http://gz.lianjia.com/chengjiao/GZ0002532269.html'
p161
aS'http://gz.lianjia.com/chengjiao/GZ0002436302.html'
p162
aS'http://gz.lianjia.com/chengjiao/GZ0002046811.html'
p163
aS'http://gz.lianjia.com/chengjiao/GZ0001444936.html'
p164
aS'http://gz.lianjia.com/chengjiao/GZ0002185099.html'
p165
aS'http://gz.lianjia.com/chengjiao/GZ0001814715.html'
p166
aS'http://gz.lianjia.com/chengjiao/GZ0002175528.html'
p167
aS'http://gz.lianjia.com/chengjiao/GZ0001949152.html'
p168
aS'http://gz.lianjia.com/chengjiao/GZ0001964359.html'
p169
aS'http://gz.lianjia.com/chengjiao/GZ0002096389.html'
p170
aS'http://gz.lianjia.com/chengjiao/GZ0002142055.html'
p171
aS'http://gz.lianjia.com/chengjiao/GZ0001855553.html'
p172
aS'http://gz.lianjia.com/chengjiao/GZ0002324143.html'
p173
aS'http://gz.lianjia.com/chengjiao/GZ0002192232.html'
p174
aS'http://gz.lianjia.com/chengjiao/GZ0001929756.html'
p175
aS'http://gz.lianjia.com/chengjiao/GZ0001713218.html'
p176
aS'http://gz.lianjia.com/chengjiao/GZ0001587408.html'
p177
aS'http://gz.lianjia.com/chengjiao/GZ0001941477.html'
p178
aS'http://gz.lianjia.com/chengjiao/GZ0002392874.html'
p179
aS'http://gz.lianjia.com/chengjiao/GZ0001600085.html'
p180
aS'http://gz.lianjia.com/chengjiao/GZ0001994956.html'
p181
aS'http://gz.lianjia.com/chengjiao/GZ0001943936.html'
p182
aS'http://gz.lianjia.com/chengjiao/GZ0001278756.html'
p183
aS'http://gz.lianjia.com/chengjiao/GZ0001975717.html'
p184
aS'http://gz.lianjia.com/chengjiao/GZ0002000267.html'
p185
aS'http://gz.lianjia.com/chengjiao/GZ0002377740.html'
p186
aS'http://gz.lianjia.com/chengjiao/GZ0002243780.html'
p187
aS'http://gz.lianjia.com/chengjiao/GZ0002159793.html'
p188
aS'http://gz.lianjia.com/chengjiao/GZ0001939620.html'
p189
aS'http://gz.lianjia.com/chengjiao/GZ0002390540.html'
p190
aS'http://gz.lianjia.com/chengjiao/GZ0001278831.html'
p191
aS'http://gz.lianjia.com/chengjiao/GZ0001777461.html'
p192
aS'http://gz.lianjia.com/chengjiao/GZ0001763202.html'
p193
aS'http://gz.lianjia.com/chengjiao/GZ0002201110.html'
p194
aS'http://gz.lianjia.com/chengjiao/GZ0001635638.html'
p195
aS'http://gz.lianjia.com/chengjiao/GZ0002224552.html'
p196
aS'http://gz.lianjia.com/chengjiao/GZ0002008482.html'
p197
aS'http://gz.lianjia.com/chengjiao/GZ0002002324.html'
p198
aS'http://gz.lianjia.com/chengjiao/GZ0001944014.html'
p199
aS'http://gz.lianjia.com/chengjiao/GZ0001612951.html'
p200
aS'http://gz.lianjia.com/chengjiao/GZ0001374846.html'
p201
aS'http://gz.lianjia.com/chengjiao/GZ0002328954.html'
p202
aS'http://gz.lianjia.com/chengjiao/GZ0002326353.html'
p203
aS'http://gz.lianjia.com/chengjiao/GZ0001746924.html'
p204
aS'http://gz.lianjia.com/chengjiao/GZ0001596939.html'
p205
aS'http://gz.lianjia.com/chengjiao/GZ0002145650.html'
p206
aS'http://gz.lianjia.com/chengjiao/GZ0002201082.html'
p207
aS'http://gz.lianjia.com/chengjiao/GZ0001968961.html'
p208
aS'http://gz.lianjia.com/chengjiao/GZ0002406805.html'
p209
aS'http://gz.lianjia.com/chengjiao/GZ0001943816.html'
p210
aS'http://gz.lianjia.com/chengjiao/GZ0002274230.html'
p211
aS'http://gz.lianjia.com/chengjiao/GZ0001535032.html'
p212
aS'http://gz.lianjia.com/chengjiao/GZ0002005639.html'
p213
aS'http://gz.lianjia.com/chengjiao/GZ0001932645.html'
p214
aS'http://gz.lianjia.com/chengjiao/GZ0002403658.html'
p215
aS'http://gz.lianjia.com/chengjiao/GZ0001877683.html'
p216
aS'http://gz.lianjia.com/chengjiao/GZ0002240287.html'
p217
aS'http://gz.lianjia.com/chengjiao/GZ0001557617.html'
p218
aS'http://gz.lianjia.com/chengjiao/GZ0002093197.html'
p219
aS'http://gz.lianjia.com/chengjiao/GZ0001814141.html'
p220
aS'http://gz.lianjia.com/chengjiao/GZ0002037036.html'
p221
aS'http://gz.lianjia.com/chengjiao/GZ0002118362.html'
p222
aS'http://gz.lianjia.com/chengjiao/GZ0001928775.html'
p223
aS'http://gz.lianjia.com/chengjiao/GZ0001964452.html'
p224
aS'http://gz.lianjia.com/chengjiao/GZ0002267943.html'
p225
aS'http://gz.lianjia.com/chengjiao/GZ0001883846.html'
p226
aS'http://gz.lianjia.com/chengjiao/GZ0002246258.html'
p227
aS'http://gz.lianjia.com/chengjiao/GZ0001910436.html'
p228
aS'http://gz.lianjia.com/chengjiao/GZ0001351916.html'
p229
aS'http://gz.lianjia.com/chengjiao/GZ0001689905.html'
p230
aS'http://gz.lianjia.com/chengjiao/GZ0001674145.html'
p231
aS'http://gz.lianjia.com/chengjiao/GZ0001996110.html'
p232
aS'http://gz.lianjia.com/chengjiao/GZ0001820632.html'
p233
aS'http://gz.lianjia.com/chengjiao/GZ0001511444.html'
p234
aS'http://gz.lianjia.com/chengjiao/GZ0001690994.html'
p235
aS'http://gz.lianjia.com/chengjiao/GZ0002247215.html'
p236
aS'http://gz.lianjia.com/chengjiao/GZ0001831355.html'
p237
aS'http://gz.lianjia.com/chengjiao/GZ0001974134.html'
p238
aS'http://gz.lianjia.com/chengjiao/GZ0002146551.html'
p239
aS'http://gz.lianjia.com/chengjiao/GZ0002172914.html'
p240
aS'http://gz.lianjia.com/chengjiao/GZ0001969361.html'
p241
aS'http://gz.lianjia.com/chengjiao/GZ0001512348.html'
p242
aS'http://gz.lianjia.com/chengjiao/GZ0001533546.html'
p243
aS'http://gz.lianjia.com/chengjiao/GZ0002318051.html'
p244
aS'http://gz.lianjia.com/chengjiao/GZ0002194756.html'
p245
aS'http://gz.lianjia.com/chengjiao/GZ0002537895.html'
p246
aS'http://gz.lianjia.com/chengjiao/GZ0001973780.html'
p247
aS'http://gz.lianjia.com/chengjiao/GZ0002309896.html'
p248
aS'http://gz.lianjia.com/chengjiao/GZ0001515418.html'
p249
aS'http://gz.lianjia.com/chengjiao/GZ0002185919.html'
p250
aS'http://gz.lianjia.com/chengjiao/GZ0002200416.html'
p251
aS'http://gz.lianjia.com/chengjiao/GZ0001551893.html'
p252
aS'http://gz.lianjia.com/chengjiao/GZ0002192733.html'
p253
aS'http://gz.lianjia.com/chengjiao/GZ0002532746.html'
p254
aS'http://gz.lianjia.com/chengjiao/GZ0002178488.html'
p255
aS'http://gz.lianjia.com/chengjiao/GZ0001392937.html'
p256
aS'http://gz.lianjia.com/chengjiao/GZ0002197335.html'
p257
aS'http://gz.lianjia.com/chengjiao/GZ0002184318.html'
p258
aS'http://gz.lianjia.com/chengjiao/GZ0002451173.html'
p259
aS'http://gz.lianjia.com/chengjiao/GZ0002235498.html'
p260
aS'http://gz.lianjia.com/chengjiao/GZ0002420673.html'
p261
aS'http://gz.lianjia.com/chengjiao/GZ0001913107.html'
p262
aS'http://gz.lianjia.com/chengjiao/GZ0002101993.html'
p263
aS'http://gz.lianjia.com/chengjiao/GZ0002401388.html'
p264
aS'http://gz.lianjia.com/chengjiao/GZ0001396375.html'
p265
aS'http://gz.lianjia.com/chengjiao/GZ0001466425.html'
p266
aS'http://gz.lianjia.com/chengjiao/GZ0001943909.html'
p267
aS'http://gz.lianjia.com/chengjiao/GZ0001961919.html'
p268
aS'http://gz.lianjia.com/chengjiao/GZ0001894663.html'
p269
aS'http://gz.lianjia.com/chengjiao/GZ0001574517.html'
p270
aS'http://gz.lianjia.com/chengjiao/GZ0001571784.html'
p271
aS'http://gz.lianjia.com/chengjiao/GZ0001281863.html'
p272
aS'http://gz.lianjia.com/chengjiao/GZ0001776691.html'
p273
aS'http://gz.lianjia.com/chengjiao/GZ0001892558.html'
p274
aS'http://gz.lianjia.com/chengjiao/GZ0001682217.html'
p275
aS'http://gz.lianjia.com/chengjiao/GZ0001941316.html'
p276
aS'http://gz.lianjia.com/chengjiao/GZ0002350637.html'
p277
aS'http://gz.lianjia.com/chengjiao/GZ0001708717.html'
p278
aS'http://gz.lianjia.com/chengjiao/GZ0001672371.html'
p279
aS'http://gz.lianjia.com/chengjiao/GZ0002185777.html'
p280
aS'http://gz.lianjia.com/chengjiao/GZ0001573482.html'
p281
aS'http://gz.lianjia.com/chengjiao/GZ0001883502.html'
p282
aS'http://gz.lianjia.com/chengjiao/GZ0001660636.html'
p283
aS'http://gz.lianjia.com/chengjiao/GZ0001623160.html'
p284
aS'http://gz.lianjia.com/chengjiao/GZ0001528431.html'
p285
aS'http://gz.lianjia.com/chengjiao/GZ0001867855.html'
p286
aS'http://gz.lianjia.com/chengjiao/GZ0001547768.html'
p287
aS'http://gz.lianjia.com/chengjiao/GZ0002329172.html'
p288
aS'http://gz.lianjia.com/chengjiao/GZ0002235908.html'
p289
aS'http://gz.lianjia.com/chengjiao/GZ0002244754.html'
p290
aS'http://gz.lianjia.com/chengjiao/GZ0001392275.html'
p291
aS'http://gz.lianjia.com/chengjiao/GZ0002545394.html'
p292
aS'http://gz.lianjia.com/chengjiao/GZ0002320544.html'
p293
aS'http://gz.lianjia.com/chengjiao/GZ0002203066.html'
p294
aS'http://gz.lianjia.com/chengjiao/GZ0001933256.html'
p295
aS'http://gz.lianjia.com/chengjiao/GZ0001375040.html'
p296
aS'http://gz.lianjia.com/chengjiao/GZ0002273851.html'
p297
aS'http://gz.lianjia.com/chengjiao/GZ0002161700.html'
p298
aS'http://gz.lianjia.com/chengjiao/GZ0002167891.html'
p299
aS'http://gz.lianjia.com/chengjiao/GZ0002174573.html'
p300
aS'http://gz.lianjia.com/chengjiao/GZ0001786424.html'
p301
aS'http://gz.lianjia.com/chengjiao/GZ0002174322.html'
p302
aS'http://gz.lianjia.com/chengjiao/GZ0002308339.html'
p303
aS'http://gz.lianjia.com/chengjiao/GZ0002287086.html'
p304
aS'http://gz.lianjia.com/chengjiao/GZ0002197360.html'
p305
aS'http://gz.lianjia.com/chengjiao/GZ0002391248.html'
p306
aS'http://gz.lianjia.com/chengjiao/GZ0001554208.html'
p307
aS'http://gz.lianjia.com/chengjiao/GZ0002185463.html'
p308
aS'http://gz.lianjia.com/chengjiao/GZ0002101205.html'
p309
aS'http://gz.lianjia.com/chengjiao/GZ0002188626.html'
p310
aS'http://gz.lianjia.com/chengjiao/GZ0001976334.html'
p311
aS'http://gz.lianjia.com/chengjiao/GZ0001963213.html'
p312
aS'http://gz.lianjia.com/chengjiao/GZ0002445805.html'
p313
aS'http://gz.lianjia.com/chengjiao/GZ0001635229.html'
p314
aS'http://gz.lianjia.com/chengjiao/GZ0002299485.html'
p315
aS'http://gz.lianjia.com/chengjiao/GZ0002280041.html'
p316
aS'http://gz.lianjia.com/chengjiao/GZ0002237372.html'
p317
aS'http://gz.lianjia.com/chengjiao/GZ0002198025.html'
p318
aS'http://gz.lianjia.com/chengjiao/GZ0001343908.html'
p319
aS'http://gz.lianjia.com/chengjiao/GZ0002188564.html'
p320
aS'http://gz.lianjia.com/chengjiao/GZ0002266584.html'
p321
aS'http://gz.lianjia.com/chengjiao/GZ0002562802.html'
p322
aS'http://gz.lianjia.com/chengjiao/GZ0002336650.html'
p323
aS'http://gz.lianjia.com/chengjiao/GZ0001707425.html'
p324
aS'http://gz.lianjia.com/chengjiao/GZ0002555713.html'
p325
aS'http://gz.lianjia.com/chengjiao/GZ0001291344.html'
p326
aS'http://gz.lianjia.com/chengjiao/GZ0002195524.html'
p327
aS'http://gz.lianjia.com/chengjiao/GZ0001551473.html'
p328
aS'http://gz.lianjia.com/chengjiao/GZ0002442522.html'
p329
aS'http://gz.lianjia.com/chengjiao/GZ0001549400.html'
p330
aS'http://gz.lianjia.com/chengjiao/GZ0002039725.html'
p331
aS'http://gz.lianjia.com/chengjiao/GZ0001615755.html'
p332
aS'http://gz.lianjia.com/chengjiao/GZ0001974164.html'
p333
aS'http://gz.lianjia.com/chengjiao/GZ0002163270.html'
p334
aS'http://gz.lianjia.com/chengjiao/GZ0002334910.html'
p335
aS'http://gz.lianjia.com/chengjiao/GZ0001824375.html'
p336
aS'http://gz.lianjia.com/chengjiao/GZ0001372736.html'
p337
aS'http://gz.lianjia.com/chengjiao/GZ0001834241.html'
p338
aS'http://gz.lianjia.com/chengjiao/GZ0002234601.html'
p339
aS'http://gz.lianjia.com/chengjiao/GZ0002427697.html'
p340
aS'http://gz.lianjia.com/chengjiao/GZ0001868399.html'
p341
aS'http://gz.lianjia.com/chengjiao/GZ0002276781.html'
p342
aS'http://gz.lianjia.com/chengjiao/GZ0002281062.html'
p343
aS'http://gz.lianjia.com/chengjiao/GZ0002308671.html'
p344
aS'http://gz.lianjia.com/chengjiao/GZ0001789096.html'
p345
aS'http://gz.lianjia.com/chengjiao/GZ0001674075.html'
p346
aS'http://gz.lianjia.com/chengjiao/GZ0001658727.html'
p347
aS'http://gz.lianjia.com/chengjiao/GZ0001607101.html'
p348
aS'http://gz.lianjia.com/chengjiao/GZ0001962006.html'
p349
aS'http://gz.lianjia.com/chengjiao/GZ0001257282.html'
p350
aS'http://gz.lianjia.com/chengjiao/GZ0002269180.html'
p351
aS'http://gz.lianjia.com/chengjiao/GZ0002199144.html'
p352
aS'http://gz.lianjia.com/chengjiao/GZ0002440009.html'
p353
aS'http://gz.lianjia.com/chengjiao/GZ0001772733.html'
p354
aS'http://gz.lianjia.com/chengjiao/GZ0002250272.html'
p355
aS'http://gz.lianjia.com/chengjiao/GZ0001372837.html'
p356
aS'http://gz.lianjia.com/chengjiao/GZ0001915829.html'
p357
aS'http://gz.lianjia.com/chengjiao/GZ0002192461.html'
p358
aS'http://gz.lianjia.com/chengjiao/GZ0001939471.html'
p359
aS'http://gz.lianjia.com/chengjiao/GZ0001929043.html'
p360
aS'http://gz.lianjia.com/chengjiao/GZ0001764841.html'
p361
aS'http://gz.lianjia.com/chengjiao/GZ0001785167.html'
p362
aS'http://gz.lianjia.com/chengjiao/GZ0001396631.html'
p363
aS'http://gz.lianjia.com/chengjiao/GZ0002313636.html'
p364
aS'http://gz.lianjia.com/chengjiao/GZ0002308370.html'
p365
aS'http://gz.lianjia.com/chengjiao/GZ0001913072.html'
p366
aS'http://gz.lianjia.com/chengjiao/GZ0001963053.html'
p367
aS'http://gz.lianjia.com/chengjiao/GZ0001673007.html'
p368
aS'http://gz.lianjia.com/chengjiao/GZ0002159660.html'
p369
aS'http://gz.lianjia.com/chengjiao/GZ0001865292.html'
p370
aS'http://gz.lianjia.com/chengjiao/GZ0001944515.html'
p371
aS'http://gz.lianjia.com/chengjiao/GZ0002197390.html'
p372
aS'http://gz.lianjia.com/chengjiao/GZ0001884055.html'
p373
aS'http://gz.lianjia.com/chengjiao/GZ0002296944.html'
p374
aS'http://gz.lianjia.com/chengjiao/GZ0001653724.html'
p375
aS'http://gz.lianjia.com/chengjiao/GZ0002161704.html'
p376
aS'http://gz.lianjia.com/chengjiao/GZ0002202602.html'
p377
aS'http://gz.lianjia.com/chengjiao/GZ0002412975.html'
p378
aS'http://gz.lianjia.com/chengjiao/GZ0001746208.html'
p379
aS'http://gz.lianjia.com/chengjiao/GZ0001923662.html'
p380
aS'http://gz.lianjia.com/chengjiao/GZ0002550843.html'
p381
aS'http://gz.lianjia.com/chengjiao/GZ0002299802.html'
p382
aS'http://gz.lianjia.com/chengjiao/GZ0001918479.html'
p383
aS'http://gz.lianjia.com/chengjiao/GZ0001443747.html'
p384
aS'http://gz.lianjia.com/chengjiao/GZ0001266505.html'
p385
aS'http://gz.lianjia.com/chengjiao/GZ0002006933.html'
p386
aS'http://gz.lianjia.com/chengjiao/GZ0002279820.html'
p387
aS'http://gz.lianjia.com/chengjiao/GZ0002274434.html'
p388
aS'http://gz.lianjia.com/chengjiao/GZ0001228002.html'
p389
aS'http://gz.lianjia.com/chengjiao/GZ0002247559.html'
p390
aS'http://gz.lianjia.com/chengjiao/GZ0001937111.html'
p391
aS'http://gz.lianjia.com/chengjiao/GZ0001934888.html'
p392
aS'http://gz.lianjia.com/chengjiao/GZ0002310189.html'
p393
aS'http://gz.lianjia.com/chengjiao/GZ0001670584.html'
p394
aS'http://gz.lianjia.com/chengjiao/GZ0001948003.html'
p395
aS'http://gz.lianjia.com/chengjiao/GZ0002327363.html'
p396
aS'http://gz.lianjia.com/chengjiao/GZ0001895248.html'
p397
aS'http://gz.lianjia.com/chengjiao/GZ0001769913.html'
p398
aS'http://gz.lianjia.com/chengjiao/GZ0002345869.html'
p399
aS'http://gz.lianjia.com/chengjiao/GZ0002244417.html'
p400
aS'http://gz.lianjia.com/chengjiao/GZ0001749387.html'
p401
aS'http://gz.lianjia.com/chengjiao/GZ0002201375.html'
p402
aS'http://gz.lianjia.com/chengjiao/GZ0001670688.html'
p403
aS'http://gz.lianjia.com/chengjiao/GZ0001356125.html'
p404
aS'http://gz.lianjia.com/chengjiao/GZ0002345773.html'
p405
aS'http://gz.lianjia.com/chengjiao/GZ0002188550.html'
p406
aS'http://gz.lianjia.com/chengjiao/GZ0001827037.html'
p407
aS'http://gz.lianjia.com/chengjiao/GZ0001878310.html'
p408
aS'http://gz.lianjia.com/chengjiao/GZ0001282478.html'
p409
aS'http://gz.lianjia.com/chengjiao/GZ0001728375.html'
p410
aS'http://gz.lianjia.com/chengjiao/GZ0001965511.html'
p411
aS'http://gz.lianjia.com/chengjiao/GZ0001281414.html'
p412
aS'http://gz.lianjia.com/chengjiao/GZ0002299508.html'
p413
aS'http://gz.lianjia.com/chengjiao/GZ0001711491.html'
p414
aS'http://gz.lianjia.com/chengjiao/GZ0001706848.html'
p415
aS'http://gz.lianjia.com/chengjiao/GZ0001532769.html'
p416
aS'http://gz.lianjia.com/chengjiao/GZ0001961318.html'
p417
aS'http://gz.lianjia.com/chengjiao/GZ0002248279.html'
p418
aS'http://gz.lianjia.com/chengjiao/GZ0001262461.html'
p419
aS'http://gz.lianjia.com/chengjiao/GZ0002574854.html'
p420
aS'http://gz.lianjia.com/chengjiao/GZ0001607125.html'
p421
aS'http://gz.lianjia.com/chengjiao/GZ0001255586.html'
p422
aS'http://gz.lianjia.com/chengjiao/GZ0002169386.html'
p423
aS'http://gz.lianjia.com/chengjiao/GZ0002187588.html'
p424
aS'http://gz.lianjia.com/chengjiao/GZ0001740152.html'
p425
aS'http://gz.lianjia.com/chengjiao/GZ0002590261.html'
p426
aS'http://gz.lianjia.com/chengjiao/GZ0002075355.html'
p427
aS'http://gz.lianjia.com/chengjiao/GZ0001255680.html'
p428
aS'http://gz.lianjia.com/chengjiao/GZ0001583109.html'
p429
aS'http://gz.lianjia.com/chengjiao/GZ0002055694.html'
p430
aS'http://gz.lianjia.com/chengjiao/GZ0001910729.html'
p431
aS'http://gz.lianjia.com/chengjiao/GZ0001663923.html'
p432
aS'http://gz.lianjia.com/chengjiao/GZ0001580012.html'
p433
aS'http://gz.lianjia.com/chengjiao/GZ0001794779.html'
p434
aS'http://gz.lianjia.com/chengjiao/GZ0002278232.html'
p435
aS'http://gz.lianjia.com/chengjiao/GZ0002157895.html'
p436
aS'http://gz.lianjia.com/chengjiao/GZ0001740153.html'
p437
aS'http://gz.lianjia.com/chengjiao/GZ0002196813.html'
p438
aS'http://gz.lianjia.com/chengjiao/GZ0002329304.html'
p439
aS'http://gz.lianjia.com/chengjiao/GZ0001897663.html'
p440
aS'http://gz.lianjia.com/chengjiao/GZ0002249915.html'
p441
aS'http://gz.lianjia.com/chengjiao/GZ0001684688.html'
p442
aS'http://gz.lianjia.com/chengjiao/GZ0001960170.html'
p443
aS'http://gz.lianjia.com/chengjiao/GZ0002275944.html'
p444
aS'http://gz.lianjia.com/chengjiao/GZ0002143315.html'
p445
aS'http://gz.lianjia.com/chengjiao/GZ0002400242.html'
p446
aS'http://gz.lianjia.com/chengjiao/GZ0002240847.html'
p447
aS'http://gz.lianjia.com/chengjiao/GZ0002095967.html'
p448
aS'http://gz.lianjia.com/chengjiao/GZ0002039685.html'
p449
aS'http://gz.lianjia.com/chengjiao/GZ0002323880.html'
p450
aS'http://gz.lianjia.com/chengjiao/GZ0001763397.html'
p451
aS'http://gz.lianjia.com/chengjiao/GZ0002122147.html'
p452
aS'http://gz.lianjia.com/chengjiao/GZ0002185709.html'
p453
aS'http://gz.lianjia.com/chengjiao/GZ0001749578.html'
p454
aS'http://gz.lianjia.com/chengjiao/GZ0001900925.html'
p455
aS'http://gz.lianjia.com/chengjiao/GZ0001802745.html'
p456
aS'http://gz.lianjia.com/chengjiao/GZ0001381481.html'
p457
aS'http://gz.lianjia.com/chengjiao/GZ0001436384.html'
p458
aS'http://gz.lianjia.com/chengjiao/GZ0001799847.html'
p459
aS'http://gz.lianjia.com/chengjiao/GZ0001990063.html'
p460
aS'http://gz.lianjia.com/chengjiao/GZ0001872573.html'
p461
aS'http://gz.lianjia.com/chengjiao/GZ0001354762.html'
p462
aS'http://gz.lianjia.com/chengjiao/GZ0002328866.html'
p463
aS'http://gz.lianjia.com/chengjiao/GZ0001382128.html'
p464
aS'http://gz.lianjia.com/chengjiao/GZ0002229913.html'
p465
aS'http://gz.lianjia.com/chengjiao/GZ0001556165.html'
p466
aS'http://gz.lianjia.com/chengjiao/GZ0001801982.html'
p467
aS'http://gz.lianjia.com/chengjiao/GZ0001377807.html'
p468
aS'http://gz.lianjia.com/chengjiao/GZ0001969382.html'
p469
aS'http://gz.lianjia.com/chengjiao/GZ0001794226.html'
p470
aS'http://gz.lianjia.com/chengjiao/GZ0001792199.html'
p471
aS'http://gz.lianjia.com/chengjiao/GZ0002297207.html'
p472
aS'http://gz.lianjia.com/chengjiao/GZ0002100175.html'
p473
aS'http://gz.lianjia.com/chengjiao/GZ0002321059.html'
p474
aS'http://gz.lianjia.com/chengjiao/GZ0001535990.html'
p475
aS'http://gz.lianjia.com/chengjiao/GZ0001720366.html'
p476
aS'http://gz.lianjia.com/chengjiao/GZ0001921653.html'
p477
aS'http://gz.lianjia.com/chengjiao/GZ0001988837.html'
p478
aS'http://gz.lianjia.com/chengjiao/GZ0001663216.html'
p479
aS'http://gz.lianjia.com/chengjiao/GZ0002337057.html'
p480
aS'http://gz.lianjia.com/chengjiao/GZ0001972169.html'
p481
aS'http://gz.lianjia.com/chengjiao/GZ0001835478.html'
p482
aS'http://gz.lianjia.com/chengjiao/GZ0001600552.html'
p483
aS'http://gz.lianjia.com/chengjiao/GZ0001597119.html'
p484
aS'http://gz.lianjia.com/chengjiao/GZ0001535563.html'
p485
aS'http://gz.lianjia.com/chengjiao/GZ0002068118.html'
p486
aS'http://gz.lianjia.com/chengjiao/GZ0002169014.html'
p487
aS'http://gz.lianjia.com/chengjiao/GZ0001665653.html'
p488
aS'http://gz.lianjia.com/chengjiao/GZ0002384941.html'
p489
aS'http://gz.lianjia.com/chengjiao/GZ0002437210.html'
p490
aS'http://gz.lianjia.com/chengjiao/GZ0002198874.html'
p491
aS'http://gz.lianjia.com/chengjiao/GZ0001930253.html'
p492
aS'http://gz.lianjia.com/chengjiao/GZ0001786089.html'
p493
aS'http://gz.lianjia.com/chengjiao/GZ0001478944.html'
p494
aS'http://gz.lianjia.com/chengjiao/GZ0002224587.html'
p495
aS'http://gz.lianjia.com/chengjiao/GZ0002180156.html'
p496
aS'http://gz.lianjia.com/chengjiao/GZ0001684740.html'
p497
aS'http://gz.lianjia.com/chengjiao/GZ0001608958.html'
p498
aS'http://gz.lianjia.com/chengjiao/GZ0001666996.html'
p499
aS'http://gz.lianjia.com/chengjiao/GZ0002063396.html'
p500
aS'http://gz.lianjia.com/chengjiao/GZ0001959561.html'
p501
aS'http://gz.lianjia.com/chengjiao/GZ0001920448.html'
p502
aS'http://gz.lianjia.com/chengjiao/GZ0001677310.html'
p503
aS'http://gz.lianjia.com/chengjiao/GZ0002051154.html'
p504
aS'http://gz.lianjia.com/chengjiao/GZ0002003909.html'
p505
aS'http://gz.lianjia.com/chengjiao/GZ0001660989.html'
p506
aS'http://gz.lianjia.com/chengjiao/GZ0001497957.html'
p507
aS'http://gz.lianjia.com/chengjiao/GZ0001279747.html'
p508
aS'http://gz.lianjia.com/chengjiao/GZ0001784081.html'
p509
aS'http://gz.lianjia.com/chengjiao/GZ0001826537.html'
p510
aS'http://gz.lianjia.com/chengjiao/GZ0002231664.html'
p511
aS'http://gz.lianjia.com/chengjiao/GZ0002156871.html'
p512
aS'http://gz.lianjia.com/chengjiao/GZ0001531364.html'
p513
aS'http://gz.lianjia.com/chengjiao/GZ0002368242.html'
p514
aS'http://gz.lianjia.com/chengjiao/GZ0001663466.html'
p515
aS'http://gz.lianjia.com/chengjiao/GZ0001678753.html'
p516
aS'http://gz.lianjia.com/chengjiao/GZ0002184674.html'
p517
aS'http://gz.lianjia.com/chengjiao/GZ0001343952.html'
p518
aS'http://gz.lianjia.com/chengjiao/GZ0002187506.html'
p519
aS'http://gz.lianjia.com/chengjiao/GZ0002406325.html'
p520
aS'http://gz.lianjia.com/chengjiao/GZ0001776834.html'
p521
aS'http://gz.lianjia.com/chengjiao/GZ0001578836.html'
p522
aS'http://gz.lianjia.com/chengjiao/GZ0001521094.html'
p523
aS'http://gz.lianjia.com/chengjiao/GZ0002005347.html'
p524
aS'http://gz.lianjia.com/chengjiao/GZ0001372836.html'
p525
aS'http://gz.lianjia.com/chengjiao/GZ0001542498.html'
p526
aS'http://gz.lianjia.com/chengjiao/GZ0001371063.html'
p527
aS'http://gz.lianjia.com/chengjiao/GZ0002294075.html'
p528
aS'http://gz.lianjia.com/chengjiao/GZ0001382804.html'
p529
aS'http://gz.lianjia.com/chengjiao/GZ0001491174.html'
p530
aS'http://gz.lianjia.com/chengjiao/GZ0001366314.html'
p531
aS'http://gz.lianjia.com/chengjiao/GZ0001706647.html'
p532
aS'http://gz.lianjia.com/chengjiao/GZ0001921652.html'
p533
aS'http://gz.lianjia.com/chengjiao/GZ0001280245.html'
p534
aS'http://gz.lianjia.com/chengjiao/GZ0001817297.html'
p535
aS'http://gz.lianjia.com/chengjiao/GZ0001636246.html'
p536
aS'http://gz.lianjia.com/chengjiao/GZ0002000926.html'
p537
aS'http://gz.lianjia.com/chengjiao/GZ0002199605.html'
p538
aS'http://gz.lianjia.com/chengjiao/GZ0001815895.html'
p539
aS'http://gz.lianjia.com/chengjiao/GZ0002263145.html'
p540
aS'http://gz.lianjia.com/chengjiao/GZ0002527032.html'
p541
aS'http://gz.lianjia.com/chengjiao/GZ0002241299.html'
p542
aS'http://gz.lianjia.com/chengjiao/GZ0001669949.html'
p543
aS'http://gz.lianjia.com/chengjiao/GZ0001700831.html'
p544
aS'http://gz.lianjia.com/chengjiao/GZ0002233662.html'
p545
aS'http://gz.lianjia.com/chengjiao/GZ0001553799.html'
p546
aS'http://gz.lianjia.com/chengjiao/GZ0001818966.html'
p547
aS'http://gz.lianjia.com/chengjiao/GZ0001996636.html'
p548
aS'http://gz.lianjia.com/chengjiao/GZ0001997490.html'
p549
aS'http://gz.lianjia.com/chengjiao/GZ0001896099.html'
p550
aS'http://gz.lianjia.com/chengjiao/GZ0001443775.html'
p551
aS'http://gz.lianjia.com/chengjiao/GZ0001590411.html'
p552
aS'http://gz.lianjia.com/chengjiao/GZ0001997885.html'
p553
aS'http://gz.lianjia.com/chengjiao/GZ0002246594.html'
p554
aS'http://gz.lianjia.com/chengjiao/GZ0001375354.html'
p555
aS'http://gz.lianjia.com/chengjiao/GZ0001610479.html'
p556
aS'http://gz.lianjia.com/chengjiao/GZ0002368245.html'
p557
aS'http://gz.lianjia.com/chengjiao/GZ0002082745.html'
p558
aS'http://gz.lianjia.com/chengjiao/GZ0002052134.html'
p559
aS'http://gz.lianjia.com/chengjiao/GZ0001503358.html'
p560
aS'http://gz.lianjia.com/chengjiao/GZ0001532854.html'
p561
aS'http://gz.lianjia.com/chengjiao/GZ0001494404.html'
p562
aS'http://gz.lianjia.com/chengjiao/GZ0001668546.html'
p563
aS'http://gz.lianjia.com/chengjiao/GZ0002042201.html'
p564
aS'http://gz.lianjia.com/chengjiao/GZ0001343628.html'
p565
aS'http://gz.lianjia.com/chengjiao/GZ0002351421.html'
p566
aS'http://gz.lianjia.com/chengjiao/GZ0001873875.html'
p567
aS'http://gz.lianjia.com/chengjiao/GZ0002539890.html'
p568
aS'http://gz.lianjia.com/chengjiao/GZ0001933551.html'
p569
aS'http://gz.lianjia.com/chengjiao/GZ0001669759.html'
p570
aS'http://gz.lianjia.com/chengjiao/GZ0002416204.html'
p571
aS'http://gz.lianjia.com/chengjiao/GZ0002425211.html'
p572
aS'http://gz.lianjia.com/chengjiao/GZ0001773831.html'
p573
aS'http://gz.lianjia.com/chengjiao/GZ0001395759.html'
p574
aS'http://gz.lianjia.com/chengjiao/GZ0002315245.html'
p575
aS'http://gz.lianjia.com/chengjiao/GZ0001748948.html'
p576
aS'http://gz.lianjia.com/chengjiao/GZ0002541927.html'
p577
aS'http://gz.lianjia.com/chengjiao/GZ0002297068.html'
p578
aS'http://gz.lianjia.com/chengjiao/GZ0002165916.html'
p579
aS'http://gz.lianjia.com/chengjiao/GZ0002330828.html'
p580
aS'http://gz.lianjia.com/chengjiao/GZ0001638087.html'
p581
aS'http://gz.lianjia.com/chengjiao/GZ0001552098.html'
p582
aS'http://gz.lianjia.com/chengjiao/GZ0002300634.html'
p583
aS'http://gz.lianjia.com/chengjiao/GZ0002441713.html'
p584
aS'http://gz.lianjia.com/chengjiao/GZ0002325100.html'
p585
aS'http://gz.lianjia.com/chengjiao/GZ0001632255.html'
p586
aS'http://gz.lianjia.com/chengjiao/GZ0002049850.html'
p587
aS'http://gz.lianjia.com/chengjiao/GZ0002331429.html'
p588
aS'http://gz.lianjia.com/chengjiao/GZ0001580964.html'
p589
aS'http://gz.lianjia.com/chengjiao/GZ0002555677.html'
p590
aS'http://gz.lianjia.com/chengjiao/GZ0001622708.html'
p591
aS'http://gz.lianjia.com/chengjiao/GZ0001573685.html'
p592
aS'http://gz.lianjia.com/chengjiao/GZ0001262127.html'
p593
aS'http://gz.lianjia.com/chengjiao/GZ0002238418.html'
p594
aS'http://gz.lianjia.com/chengjiao/GZ0001603892.html'
p595
aS'http://gz.lianjia.com/chengjiao/GZ0002196491.html'
p596
aS'http://gz.lianjia.com/chengjiao/GZ0001881063.html'
p597
aS'http://gz.lianjia.com/chengjiao/GZ0002314221.html'
p598
aS'http://gz.lianjia.com/chengjiao/GZ0002305545.html'
p599
aS'http://gz.lianjia.com/chengjiao/GZ0001822761.html'
p600
aS'http://gz.lianjia.com/chengjiao/GZ0001859789.html'
p601
aS'http://gz.lianjia.com/chengjiao/GZ0001964599.html'
p602
aS'http://gz.lianjia.com/chengjiao/GZ0001965924.html'
p603
aS'http://gz.lianjia.com/chengjiao/GZ0001875166.html'
p604
aS'http://gz.lianjia.com/chengjiao/GZ0002187510.html'
p605
aS'http://gz.lianjia.com/chengjiao/GZ0002298736.html'
p606
aS'http://gz.lianjia.com/chengjiao/GZ0001806410.html'
p607
aS'http://gz.lianjia.com/chengjiao/GZ0002300118.html'
p608
aS'http://gz.lianjia.com/chengjiao/GZ0001711596.html'
p609
aS'http://gz.lianjia.com/chengjiao/GZ0002408756.html'
p610
aS'http://gz.lianjia.com/chengjiao/GZ0002187536.html'
p611
aS'http://gz.lianjia.com/chengjiao/GZ0002117736.html'
p612
aS'http://gz.lianjia.com/chengjiao/GZ0001635104.html'
p613
aS'http://gz.lianjia.com/chengjiao/GZ0002000214.html'
p614
aS'http://gz.lianjia.com/chengjiao/GZ0001608113.html'
p615
aS'http://gz.lianjia.com/chengjiao/GZ0001833121.html'
p616
aS'http://gz.lianjia.com/chengjiao/GZ0002237400.html'
p617
aS'http://gz.lianjia.com/chengjiao/GZ0001603207.html'
p618
aS'http://gz.lianjia.com/chengjiao/GZ0002185879.html'
p619
aS'http://gz.lianjia.com/chengjiao/GZ0002159679.html'
p620
aS'http://gz.lianjia.com/chengjiao/GZ0001356071.html'
p621
aS'http://gz.lianjia.com/chengjiao/GZ0002185957.html'
p622
aS'http://gz.lianjia.com/chengjiao/GZ0002094941.html'
p623
aS'http://gz.lianjia.com/chengjiao/GZ0001794331.html'
p624
aS'http://gz.lianjia.com/chengjiao/GZ0002536762.html'
p625
aS'http://gz.lianjia.com/chengjiao/GZ0002254291.html'
p626
aS'http://gz.lianjia.com/chengjiao/GZ0002195435.html'
p627
aS'http://gz.lianjia.com/chengjiao/GZ0002379644.html'
p628
aS'http://gz.lianjia.com/chengjiao/GZ0002346119.html'
p629
aS'http://gz.lianjia.com/chengjiao/GZ0001852788.html'
p630
aS'http://gz.lianjia.com/chengjiao/GZ0001364341.html'
p631
aS'http://gz.lianjia.com/chengjiao/GZ0002583812.html'
p632
aS'http://gz.lianjia.com/chengjiao/GZ0001671764.html'
p633
aS'http://gz.lianjia.com/chengjiao/GZ0002200854.html'
p634
aS'http://gz.lianjia.com/chengjiao/GZ0002069844.html'
p635
aS'http://gz.lianjia.com/chengjiao/GZ0002328525.html'
p636
aS'http://gz.lianjia.com/chengjiao/GZ0002099966.html'
p637
aS'http://gz.lianjia.com/chengjiao/GZ0001862130.html'
p638
aS'http://gz.lianjia.com/chengjiao/GZ0002289850.html'
p639
aS'http://gz.lianjia.com/chengjiao/GZ0001973833.html'
p640
aS'http://gz.lianjia.com/chengjiao/GZ0001732275.html'
p641
aS'http://gz.lianjia.com/chengjiao/GZ0002175389.html'
p642
aS'http://gz.lianjia.com/chengjiao/GZ0002258991.html'
p643
aS'http://gz.lianjia.com/chengjiao/GZ0001987702.html'
p644
aS'http://gz.lianjia.com/chengjiao/GZ0001947661.html'
p645
aS'http://gz.lianjia.com/chengjiao/GZ0002378995.html'
p646
aS'http://gz.lianjia.com/chengjiao/GZ0001885738.html'
p647
aS'http://gz.lianjia.com/chengjiao/GZ0002591161.html'
p648
aS'http://gz.lianjia.com/chengjiao/GZ0001948985.html'
p649
aS'http://gz.lianjia.com/chengjiao/GZ0001926997.html'
p650
aS'http://gz.lianjia.com/chengjiao/GZ0002319888.html'
p651
aS'http://gz.lianjia.com/chengjiao/GZ0002289894.html'
p652
aS'http://gz.lianjia.com/chengjiao/GZ0002243386.html'
p653
aS'http://gz.lianjia.com/chengjiao/GZ0002121269.html'
p654
aS'http://gz.lianjia.com/chengjiao/GZ0001967119.html'
p655
aS'http://gz.lianjia.com/chengjiao/GZ0002436310.html'
p656
aS'http://gz.lianjia.com/chengjiao/GZ0002596154.html'
p657
aS'http://gz.lianjia.com/chengjiao/GZ0001652210.html'
p658
aS'http://gz.lianjia.com/chengjiao/GZ0002291093.html'
p659
aS'http://gz.lianjia.com/chengjiao/GZ0001242844.html'
p660
aS'http://gz.lianjia.com/chengjiao/GZ0001532975.html'
p661
aS'http://gz.lianjia.com/chengjiao/GZ0002272664.html'
p662
aS'http://gz.lianjia.com/chengjiao/GZ0001747207.html'
p663
aS'http://gz.lianjia.com/chengjiao/GZ0001989169.html'
p664
aS'http://gz.lianjia.com/chengjiao/GZ0002425630.html'
p665
aS'http://gz.lianjia.com/chengjiao/GZ0002185383.html'
p666
aS'http://gz.lianjia.com/chengjiao/GZ0001271938.html'
p667
aS'http://gz.lianjia.com/chengjiao/GZ0002194813.html'
p668
aS'http://gz.lianjia.com/chengjiao/GZ0002234973.html'
p669
aS'http://gz.lianjia.com/chengjiao/GZ0001558615.html'
p670
aS'http://gz.lianjia.com/chengjiao/GZ0001615325.html'
p671
aS'http://gz.lianjia.com/chengjiao/GZ0002390246.html'
p672
aS'http://gz.lianjia.com/chengjiao/GZ0001661712.html'
p673
aS'http://gz.lianjia.com/chengjiao/GZ0002165070.html'
p674
aS'http://gz.lianjia.com/chengjiao/GZ0001866284.html'
p675
aS'http://gz.lianjia.com/chengjiao/GZ0002100499.html'
p676
aS'http://gz.lianjia.com/chengjiao/GZ0001780794.html'
p677
aS'http://gz.lianjia.com/chengjiao/GZ0002594819.html'
p678
aS'http://gz.lianjia.com/chengjiao/GZ0002413005.html'
p679
aS'http://gz.lianjia.com/chengjiao/GZ0002419830.html'
p680
aS'http://gz.lianjia.com/chengjiao/GZ0001585274.html'
p681
aS'http://gz.lianjia.com/chengjiao/GZ0002185199.html'
p682
aS'http://gz.lianjia.com/chengjiao/GZ0002243810.html'
p683
aS'http://gz.lianjia.com/chengjiao/GZ0002347803.html'
p684
aS'http://gz.lianjia.com/chengjiao/GZ0002343950.html'
p685
aS'http://gz.lianjia.com/chengjiao/GZ0001378842.html'
p686
aS'http://gz.lianjia.com/chengjiao/GZ0001751058.html'
p687
aS'http://gz.lianjia.com/chengjiao/GZ0002232092.html'
p688
aS'http://gz.lianjia.com/chengjiao/GZ0002569153.html'
p689
aS'http://gz.lianjia.com/chengjiao/GZ0002397845.html'
p690
aS'http://gz.lianjia.com/chengjiao/GZ0002381972.html'
p691
aS'http://gz.lianjia.com/chengjiao/GZ0002344617.html'
p692
aS'http://gz.lianjia.com/chengjiao/GZ0001694754.html'
p693
aS'http://gz.lianjia.com/chengjiao/GZ0002185769.html'
p694
aS'http://gz.lianjia.com/chengjiao/GZ0002333148.html'
p695
aS'http://gz.lianjia.com/chengjiao/GZ0002249649.html'
p696
aS'http://gz.lianjia.com/chengjiao/GZ0001970443.html'
p697
aS'http://gz.lianjia.com/chengjiao/GZ0002134339.html'
p698
aS'http://gz.lianjia.com/chengjiao/GZ0002423061.html'
p699
aS'http://gz.lianjia.com/chengjiao/GZ0002167033.html'
p700
aS'http://gz.lianjia.com/chengjiao/GZ0001911351.html'
p701
aS'http://gz.lianjia.com/chengjiao/GZ0001509897.html'
p702
aS'http://gz.lianjia.com/chengjiao/GZ0001962738.html'
p703
aS'http://gz.lianjia.com/chengjiao/GZ0001607558.html'
p704
aS'http://gz.lianjia.com/chengjiao/GZ0002117165.html'
p705
aS'http://gz.lianjia.com/chengjiao/GZ0002402233.html'
p706
aS'http://gz.lianjia.com/chengjiao/GZ0001662148.html'
p707
aS'http://gz.lianjia.com/chengjiao/GZ0002195750.html'
p708
aS'http://gz.lianjia.com/chengjiao/GZ0002041909.html'
p709
aS'http://gz.lianjia.com/chengjiao/GZ0001876152.html'
p710
aS'http://gz.lianjia.com/chengjiao/GZ0001615267.html'
p711
aS'http://gz.lianjia.com/chengjiao/GZ0002287934.html'
p712
aS'http://gz.lianjia.com/chengjiao/GZ0002316050.html'
p713
aS'http://gz.lianjia.com/chengjiao/GZ0001476445.html'
p714
aS'http://gz.lianjia.com/chengjiao/GZ0002270578.html'
p715
aS'http://gz.lianjia.com/chengjiao/GZ0001233373.html'
p716
aS'http://gz.lianjia.com/chengjiao/GZ0001249250.html'
p717
aS'http://gz.lianjia.com/chengjiao/GZ0001510638.html'
p718
aS'http://gz.lianjia.com/chengjiao/GZ0002175458.html'
p719
aS'http://gz.lianjia.com/chengjiao/GZ0002185390.html'
p720
aS'http://gz.lianjia.com/chengjiao/GZ0002200260.html'
p721
aS'http://gz.lianjia.com/chengjiao/GZ0001292290.html'
p722
aS'http://gz.lianjia.com/chengjiao/GZ0001911612.html'
p723
aS'http://gz.lianjia.com/chengjiao/GZ0001934694.html'
p724
aS'http://gz.lianjia.com/chengjiao/GZ0001895657.html'
p725
aS'http://gz.lianjia.com/chengjiao/GZ0002554460.html'
p726
aS'http://gz.lianjia.com/chengjiao/GZ0002186346.html'
p727
aS'http://gz.lianjia.com/chengjiao/GZ0001770266.html'
p728
aS'http://gz.lianjia.com/chengjiao/GZ0001752614.html'
p729
aS'http://gz.lianjia.com/chengjiao/GZ0001742197.html'
p730
aS'http://gz.lianjia.com/chengjiao/GZ0001262110.html'
p731
aS'http://gz.lianjia.com/chengjiao/GZ0002255306.html'
p732
aS'http://gz.lianjia.com/chengjiao/GZ0001489958.html'
p733
aS'http://gz.lianjia.com/chengjiao/GZ0001664626.html'
p734
aS'http://gz.lianjia.com/chengjiao/GZ0002313820.html'
p735
aS'http://gz.lianjia.com/chengjiao/GZ0001613979.html'
p736
aS'http://gz.lianjia.com/chengjiao/GZ0001855469.html'
p737
aS'http://gz.lianjia.com/chengjiao/GZ0002296211.html'
p738
aS'http://gz.lianjia.com/chengjiao/GZ0001579446.html'
p739
aS'http://gz.lianjia.com/chengjiao/GZ0001867274.html'
p740
aS'http://gz.lianjia.com/chengjiao/GZ0001674636.html'
p741
aS'http://gz.lianjia.com/chengjiao/GZ0002266956.html'
p742
aS'http://gz.lianjia.com/chengjiao/GZ0001491794.html'
p743
aS'http://gz.lianjia.com/chengjiao/GZ0001883554.html'
p744
aS'http://gz.lianjia.com/chengjiao/GZ0001520225.html'
p745
aS'http://gz.lianjia.com/chengjiao/GZ0001857758.html'
p746
aS'http://gz.lianjia.com/chengjiao/GZ0001429466.html'
p747
aS'http://gz.lianjia.com/chengjiao/GZ0002249390.html'
p748
aS'http://gz.lianjia.com/chengjiao/GZ0001589032.html'
p749
aS'http://gz.lianjia.com/chengjiao/GZ0001700515.html'
p750
aS'http://gz.lianjia.com/chengjiao/GZ0001627332.html'
p751
aS'http://gz.lianjia.com/chengjiao/GZ0001556576.html'
p752
aS'http://gz.lianjia.com/chengjiao/GZ0002338215.html'
p753
aS'http://gz.lianjia.com/chengjiao/GZ0001708966.html'
p754
aS'http://gz.lianjia.com/chengjiao/GZ0001964103.html'
p755
aS'http://gz.lianjia.com/chengjiao/GZ0001817036.html'
p756
aS'http://gz.lianjia.com/chengjiao/GZ0001236423.html'
p757
aS'http://gz.lianjia.com/chengjiao/GZ0001987711.html'
p758
aS'http://gz.lianjia.com/chengjiao/GZ0002320183.html'
p759
aS'http://gz.lianjia.com/chengjiao/GZ0002410126.html'
p760
aS'http://gz.lianjia.com/chengjiao/GZ0002336532.html'
p761
aS'http://gz.lianjia.com/chengjiao/GZ0001584348.html'
p762
aS'http://gz.lianjia.com/chengjiao/GZ0001918900.html'
p763
aS'http://gz.lianjia.com/chengjiao/GZ0002288361.html'
p764
aS'http://gz.lianjia.com/chengjiao/GZ0002554364.html'
p765
aS'http://gz.lianjia.com/chengjiao/GZ0002278065.html'
p766
aS'http://gz.lianjia.com/chengjiao/GZ0002373515.html'
p767
aS'http://gz.lianjia.com/chengjiao/GZ0001962715.html'
p768
aS'http://gz.lianjia.com/chengjiao/GZ0002577052.html'
p769
aS'http://gz.lianjia.com/chengjiao/GZ0001517197.html'
p770
aS'http://gz.lianjia.com/chengjiao/GZ0002342945.html'
p771
aS'http://gz.lianjia.com/chengjiao/GZ0001989203.html'
p772
aS'http://gz.lianjia.com/chengjiao/GZ0001859496.html'
p773
aS'http://gz.lianjia.com/chengjiao/GZ0002047484.html'
p774
aS'http://gz.lianjia.com/chengjiao/GZ0002575135.html'
p775
aS'http://gz.lianjia.com/chengjiao/GZ0002342701.html'
p776
aS'http://gz.lianjia.com/chengjiao/GZ0002303545.html'
p777
aS'http://gz.lianjia.com/chengjiao/GZ0001678106.html'
p778
aS'http://gz.lianjia.com/chengjiao/GZ0001574104.html'
p779
aS'http://gz.lianjia.com/chengjiao/GZ0002044537.html'
p780
aS'http://gz.lianjia.com/chengjiao/GZ0002160363.html'
p781
aS'http://gz.lianjia.com/chengjiao/GZ0002413232.html'
p782
aS'http://gz.lianjia.com/chengjiao/GZ0001996419.html'
p783
aS'http://gz.lianjia.com/chengjiao/GZ0001770675.html'
p784
aS'http://gz.lianjia.com/chengjiao/GZ0002183402.html'
p785
aS'http://gz.lianjia.com/chengjiao/GZ0001959554.html'
p786
aS'http://gz.lianjia.com/chengjiao/GZ0002402890.html'
p787
aS'http://gz.lianjia.com/chengjiao/GZ0002454376.html'
p788
aS'http://gz.lianjia.com/chengjiao/GZ0002530425.html'
p789
aS'http://gz.lianjia.com/chengjiao/GZ0001612459.html'
p790
aS'http://gz.lianjia.com/chengjiao/GZ0001827780.html'
p791
aS'http://gz.lianjia.com/chengjiao/GZ0002532507.html'
p792
aS'http://gz.lianjia.com/chengjiao/GZ0001696938.html'
p793
aS'http://gz.lianjia.com/chengjiao/GZ0001601118.html'
p794
aS'http://gz.lianjia.com/chengjiao/GZ0001711803.html'
p795
aS'http://gz.lianjia.com/chengjiao/GZ0002298452.html'
p796
aS'http://gz.lianjia.com/chengjiao/GZ0002324938.html'
p797
aS'http://gz.lianjia.com/chengjiao/GZ0002288527.html'
p798
aS'http://gz.lianjia.com/chengjiao/GZ0002290437.html'
p799
aS'http://gz.lianjia.com/chengjiao/GZ0001441555.html'
p800
aS'http://gz.lianjia.com/chengjiao/GZ0002130286.html'
p801
aS'http://gz.lianjia.com/chengjiao/GZ0002586232.html'
p802
aS'http://gz.lianjia.com/chengjiao/GZ0001780047.html'
p803
aS'http://gz.lianjia.com/chengjiao/GZ0001280293.html'
p804
aS'http://gz.lianjia.com/chengjiao/GZ0002184991.html'
p805
aS'http://gz.lianjia.com/chengjiao/GZ0002319236.html'
p806
aS'http://gz.lianjia.com/chengjiao/GZ0002329436.html'
p807
aS'http://gz.lianjia.com/chengjiao/GZ0002005623.html'
p808
aS'http://gz.lianjia.com/chengjiao/GZ0001904082.html'
p809
aS'http://gz.lianjia.com/chengjiao/GZ0002202546.html'
p810
aS'http://gz.lianjia.com/chengjiao/GZ0001382831.html'
p811
aS'http://gz.lianjia.com/chengjiao/GZ0002127145.html'
p812
aS'http://gz.lianjia.com/chengjiao/GZ0002279555.html'
p813
aS'http://gz.lianjia.com/chengjiao/GZ0002445604.html'
p814
aS'http://gz.lianjia.com/chengjiao/GZ0001999433.html'
p815
aS'http://gz.lianjia.com/chengjiao/GZ0001618138.html'
p816
aS'http://gz.lianjia.com/chengjiao/GZ0002427580.html'
p817
aS'http://gz.lianjia.com/chengjiao/GZ0002296352.html'
p818
aS'http://gz.lianjia.com/chengjiao/GZ0002185945.html'
p819
aS'http://gz.lianjia.com/chengjiao/GZ0002002255.html'
p820
aS'http://gz.lianjia.com/chengjiao/GZ0002370563.html'
p821
aS'http://gz.lianjia.com/chengjiao/GZ0002458316.html'
p822
aS'http://gz.lianjia.com/chengjiao/GZ0002437843.html'
p823
aS'http://gz.lianjia.com/chengjiao/GZ0001277137.html'
p824
aS'http://gz.lianjia.com/chengjiao/GZ0001667776.html'
p825
aS'http://gz.lianjia.com/chengjiao/GZ0002415207.html'
p826
aS'http://gz.lianjia.com/chengjiao/GZ0002071394.html'
p827
aS'http://gz.lianjia.com/chengjiao/GZ0002292218.html'
p828
aS'http://gz.lianjia.com/chengjiao/GZ0001381480.html'
p829
aS'http://gz.lianjia.com/chengjiao/GZ0001340363.html'
p830
aS'http://gz.lianjia.com/chengjiao/GZ0002532216.html'
p831
aS'http://gz.lianjia.com/chengjiao/GZ0002185472.html'
p832
aS'http://gz.lianjia.com/chengjiao/GZ0002329195.html'
p833
aS'http://gz.lianjia.com/chengjiao/GZ0001668427.html'
p834
aS'http://gz.lianjia.com/chengjiao/GZ0002057718.html'
p835
aS'http://gz.lianjia.com/chengjiao/GZ0002250275.html'
p836
aS'http://gz.lianjia.com/chengjiao/GZ0001699006.html'
p837
aS'http://gz.lianjia.com/chengjiao/GZ0002381754.html'
p838
aS'http://gz.lianjia.com/chengjiao/GZ0001974604.html'
p839
aS'http://gz.lianjia.com/chengjiao/GZ0002310065.html'
p840
aS'http://gz.lianjia.com/chengjiao/GZ0002535231.html'
p841
aS'http://gz.lianjia.com/chengjiao/GZ0001825890.html'
p842
aS'http://gz.lianjia.com/chengjiao/GZ0001910480.html'
p843
aS'http://gz.lianjia.com/chengjiao/GZ0002439331.html'
p844
aS'http://gz.lianjia.com/chengjiao/GZ0001976496.html'
p845
aS'http://gz.lianjia.com/chengjiao/GZ0002157903.html'
p846
aS'http://gz.lianjia.com/chengjiao/GZ0002598268.html'
p847
aS'http://gz.lianjia.com/chengjiao/GZ0001727489.html'
p848
aS'http://gz.lianjia.com/chengjiao/GZ0001439006.html'
p849
aS'http://gz.lianjia.com/chengjiao/GZ0002310689.html'
p850
aS'http://gz.lianjia.com/chengjiao/GZ0002281781.html'
p851
aS'http://gz.lianjia.com/chengjiao/GZ0001239198.html'
p852
aS'http://gz.lianjia.com/chengjiao/GZ0001705301.html'
p853
aS'http://gz.lianjia.com/chengjiao/GZ0001437625.html'
p854
aS'http://gz.lianjia.com/chengjiao/GZ0002534028.html'
p855
aS'http://gz.lianjia.com/chengjiao/GZ0001996005.html'
p856
aS'http://gz.lianjia.com/chengjiao/GZ0001679569.html'
p857
aS'http://gz.lianjia.com/chengjiao/GZ0001933197.html'
p858
aS'http://gz.lianjia.com/chengjiao/GZ0001676867.html'
p859
aS'http://gz.lianjia.com/chengjiao/GZ0001392160.html'
p860
aS'http://gz.lianjia.com/chengjiao/GZ0002320908.html'
p861
aS'http://gz.lianjia.com/chengjiao/GZ0002257708.html'
p862
aS'http://gz.lianjia.com/chengjiao/GZ0001374680.html'
p863
aS'http://gz.lianjia.com/chengjiao/GZ0002281274.html'
p864
aS'http://gz.lianjia.com/chengjiao/GZ0002330256.html'
p865
aS'http://gz.lianjia.com/chengjiao/GZ0002592296.html'
p866
aS'http://gz.lianjia.com/chengjiao/GZ0002539902.html'
p867
aS'http://gz.lianjia.com/chengjiao/GZ0002248832.html'
p868
aS'http://gz.lianjia.com/chengjiao/GZ0002199701.html'
p869
aS'http://gz.lianjia.com/chengjiao/GZ0001554226.html'
p870
aS'http://gz.lianjia.com/chengjiao/GZ0001627460.html'
p871
aS'http://gz.lianjia.com/chengjiao/GZ0001522834.html'
p872
aS'http://gz.lianjia.com/chengjiao/GZ0001250266.html'
p873
aS'http://gz.lianjia.com/chengjiao/GZ0002192123.html'
p874
aS'http://gz.lianjia.com/chengjiao/GZ0002170136.html'
p875
aS'http://gz.lianjia.com/chengjiao/GZ0001497776.html'
p876
aS'http://gz.lianjia.com/chengjiao/GZ0002529345.html'
p877
aS'http://gz.lianjia.com/chengjiao/GZ0001234322.html'
p878
aS'http://gz.lianjia.com/chengjiao/GZ0002547664.html'
p879
aS'http://gz.lianjia.com/chengjiao/GZ0002576491.html'
p880
aS'http://gz.lianjia.com/chengjiao/GZ0002242827.html'
p881
aS'http://gz.lianjia.com/chengjiao/GZ0001754772.html'
p882
aS'http://gz.lianjia.com/chengjiao/GZ0001740673.html'
p883
aS'http://gz.lianjia.com/chengjiao/GZ0002259450.html'
p884
aS'http://gz.lianjia.com/chengjiao/GZ0002432936.html'
p885
aS'http://gz.lianjia.com/chengjiao/GZ0001578480.html'
p886
aS'http://gz.lianjia.com/chengjiao/GZ0002200413.html'
p887
aS'http://gz.lianjia.com/chengjiao/GZ0002538554.html'
p888
aS'http://gz.lianjia.com/chengjiao/GZ0002254392.html'
p889
aS'http://gz.lianjia.com/chengjiao/GZ0001683429.html'
p890
aS'http://gz.lianjia.com/chengjiao/GZ0001638581.html'
p891
aS'http://gz.lianjia.com/chengjiao/GZ0002168214.html'
p892
aS'http://gz.lianjia.com/chengjiao/GZ0001341907.html'
p893
aS'http://gz.lianjia.com/chengjiao/GZ0002280314.html'
p894
aS'http://gz.lianjia.com/chengjiao/GZ0001525735.html'
p895
aS'http://gz.lianjia.com/chengjiao/GZ0001238153.html'
p896
aS'http://gz.lianjia.com/chengjiao/GZ0001619551.html'
p897
aS'http://gz.lianjia.com/chengjiao/GZ0001924053.html'
p898
aS'http://gz.lianjia.com/chengjiao/GZ0002452777.html'
p899
aS'http://gz.lianjia.com/chengjiao/GZ0002235932.html'
p900
aS'http://gz.lianjia.com/chengjiao/GZ0001509420.html'
p901
aS'http://gz.lianjia.com/chengjiao/GZ0002322571.html'
p902
aS'http://gz.lianjia.com/chengjiao/GZ0002330843.html'
p903
aS'http://gz.lianjia.com/chengjiao/GZ0002171911.html'
p904
aS'http://gz.lianjia.com/chengjiao/GZ0002139288.html'
p905
aS'http://gz.lianjia.com/chengjiao/GZ0001589546.html'
p906
aS'http://gz.lianjia.com/chengjiao/GZ0001662104.html'
p907
aS'http://gz.lianjia.com/chengjiao/GZ0002458606.html'
p908
aS'http://gz.lianjia.com/chengjiao/GZ0002187066.html'
p909
aS'http://gz.lianjia.com/chengjiao/GZ0002191446.html'
p910
aS'http://gz.lianjia.com/chengjiao/GZ0001339863.html'
p911
aS'http://gz.lianjia.com/chengjiao/GZ0002427168.html'
p912
aS'http://gz.lianjia.com/chengjiao/GZ0001679116.html'
p913
aS'http://gz.lianjia.com/chengjiao/GZ0002331653.html'
p914
aS'http://gz.lianjia.com/chengjiao/GZ0002184869.html'
p915
aS'http://gz.lianjia.com/chengjiao/GZ0001250243.html'
p916
aS'http://gz.lianjia.com/chengjiao/GZ0002004928.html'
p917
aS'http://gz.lianjia.com/chengjiao/GZ0002171280.html'
p918
aS'http://gz.lianjia.com/chengjiao/GZ0001504590.html'
p919
aS'http://gz.lianjia.com/chengjiao/GZ0001767471.html'
p920
aS'http://gz.lianjia.com/chengjiao/GZ0001773563.html'
p921
aS'http://gz.lianjia.com/chengjiao/GZ0001501165.html'
p922
aS'http://gz.lianjia.com/chengjiao/GZ0002345290.html'
p923
aS'http://gz.lianjia.com/chengjiao/GZ0002289644.html'
p924
aS'http://gz.lianjia.com/chengjiao/GZ0001908066.html'
p925
aS'http://gz.lianjia.com/chengjiao/GZ0002336599.html'
p926
aS'http://gz.lianjia.com/chengjiao/GZ0001832590.html'
p927
aS'http://gz.lianjia.com/chengjiao/GZ0001631093.html'
p928
aS'http://gz.lianjia.com/chengjiao/GZ0002140567.html'
p929
aS'http://gz.lianjia.com/chengjiao/GZ0002083193.html'
p930
aS'http://gz.lianjia.com/chengjiao/GZ0001682714.html'
p931
aS'http://gz.lianjia.com/chengjiao/GZ0002047706.html'
p932
aS'http://gz.lianjia.com/chengjiao/GZ0002187540.html'
p933
aS'http://gz.lianjia.com/chengjiao/GZ0002100429.html'
p934
aS'http://gz.lianjia.com/chengjiao/GZ0001865628.html'
p935
aS'http://gz.lianjia.com/chengjiao/GZ0001375725.html'
p936
aS'http://gz.lianjia.com/chengjiao/GZ0002224551.html'
p937
aS'http://gz.lianjia.com/chengjiao/GZ0002161943.html'
p938
aS'http://gz.lianjia.com/chengjiao/GZ0002572857.html'
p939
aS'http://gz.lianjia.com/chengjiao/GZ0001392165.html'
p940
aS'http://gz.lianjia.com/chengjiao/GZ0001579572.html'
p941
aS'http://gz.lianjia.com/chengjiao/GZ0002238382.html'
p942
aS'http://gz.lianjia.com/chengjiao/GZ0002190491.html'
p943
aS'http://gz.lianjia.com/chengjiao/GZ0001656793.html'
p944
aS'http://gz.lianjia.com/chengjiao/GZ0001930476.html'
p945
aS'http://gz.lianjia.com/chengjiao/GZ0001926180.html'
p946
aS'http://gz.lianjia.com/chengjiao/GZ0002290277.html'
p947
aS'http://gz.lianjia.com/chengjiao/GZ0002195794.html'
p948
aS'http://gz.lianjia.com/chengjiao/GZ0001392459.html'
p949
aS'http://gz.lianjia.com/chengjiao/GZ0001963551.html'
p950
aS'http://gz.lianjia.com/chengjiao/GZ0002453124.html'
p951
aS'http://gz.lianjia.com/chengjiao/GZ0002326354.html'
p952
aS'http://gz.lianjia.com/chengjiao/GZ0001596496.html'
p953
aS'http://gz.lianjia.com/chengjiao/GZ0001532384.html'
p954
aS'http://gz.lianjia.com/chengjiao/GZ0002368257.html'
p955
aS'http://gz.lianjia.com/chengjiao/GZ0001860193.html'
p956
aS'http://gz.lianjia.com/chengjiao/GZ0001885769.html'
p957
aS'http://gz.lianjia.com/chengjiao/GZ0001372042.html'
p958
aS'http://gz.lianjia.com/chengjiao/GZ0002171968.html'
p959
aS'http://gz.lianjia.com/chengjiao/GZ0001556095.html'
p960
aS'http://gz.lianjia.com/chengjiao/GZ0001868771.html'
p961
aS'http://gz.lianjia.com/chengjiao/GZ0002201044.html'
p962
aS'http://gz.lianjia.com/chengjiao/GZ0001477147.html'
p963
aS'http://gz.lianjia.com/chengjiao/GZ0001569560.html'
p964
aS'http://gz.lianjia.com/chengjiao/GZ0002201211.html'
p965
aS'http://gz.lianjia.com/chengjiao/GZ0002063562.html'
p966
aS'http://gz.lianjia.com/chengjiao/GZ0001960838.html'
p967
aS'http://gz.lianjia.com/chengjiao/GZ0002521639.html'
p968
aS'http://gz.lianjia.com/chengjiao/GZ0001768477.html'
p969
aS'http://gz.lianjia.com/chengjiao/GZ0001942030.html'
p970
aS'http://gz.lianjia.com/chengjiao/GZ0002346081.html'
p971
aS'http://gz.lianjia.com/chengjiao/GZ0002331148.html'
p972
aS'http://gz.lianjia.com/chengjiao/GZ0002279422.html'
p973
aS'http://gz.lianjia.com/chengjiao/GZ0002067071.html'
p974
aS'http://gz.lianjia.com/chengjiao/GZ0001480836.html'
p975
aS'http://gz.lianjia.com/chengjiao/GZ0002344093.html'
p976
aS'http://gz.lianjia.com/chengjiao/GZ0001908288.html'
p977
aS'http://gz.lianjia.com/chengjiao/GZ0001746461.html'
p978
aS'http://gz.lianjia.com/chengjiao/GZ0001553572.html'
p979
aS'http://gz.lianjia.com/chengjiao/GZ0001965558.html'
p980
aS'http://gz.lianjia.com/chengjiao/GZ0002198243.html'
p981
aS'http://gz.lianjia.com/chengjiao/GZ0002567109.html'
p982
aS'http://gz.lianjia.com/chengjiao/GZ0001872393.html'
p983
aS'http://gz.lianjia.com/chengjiao/GZ0002280168.html'
p984
aS'http://gz.lianjia.com/chengjiao/GZ0002446486.html'
p985
aS'http://gz.lianjia.com/chengjiao/GZ0002435138.html'
p986
aS'http://gz.lianjia.com/chengjiao/GZ0001789387.html'
p987
aS'http://gz.lianjia.com/chengjiao/GZ0001238032.html'
p988
aS'http://gz.lianjia.com/chengjiao/GZ0001565627.html'
p989
aS'http://gz.lianjia.com/chengjiao/GZ0001656690.html'
p990
aS'http://gz.lianjia.com/chengjiao/GZ0001807397.html'
p991
aS'http://gz.lianjia.com/chengjiao/GZ0002423118.html'
p992
aS'http://gz.lianjia.com/chengjiao/GZ0002555419.html'
p993
aS'http://gz.lianjia.com/chengjiao/GZ0001228093.html'
p994
aS'http://gz.lianjia.com/chengjiao/GZ0002269597.html'
p995
aS'http://gz.lianjia.com/chengjiao/GZ0002004080.html'
p996
aS'http://gz.lianjia.com/chengjiao/GZ0001608021.html'
p997
aS'http://gz.lianjia.com/chengjiao/GZ0001616632.html'
p998
aS'http://gz.lianjia.com/chengjiao/GZ0002081434.html'
p999
aS'http://gz.lianjia.com/chengjiao/GZ0002437001.html'
p1000
aS'http://gz.lianjia.com/chengjiao/GZ0001603612.html'
p1001
aS'http://gz.lianjia.com/chengjiao/GZ0001494857.html'
p1002
aS'http://gz.lianjia.com/chengjiao/GZ0001270615.html'
p1003
aS'http://gz.lianjia.com/chengjiao/GZ0001291383.html'
p1004
aS'http://gz.lianjia.com/chengjiao/GZ0002201682.html'
p1005
aS'http://gz.lianjia.com/chengjiao/GZ0001803623.html'
p1006
aS'http://gz.lianjia.com/chengjiao/GZ0002577454.html'
p1007
aS'http://gz.lianjia.com/chengjiao/GZ0001663757.html'
p1008
aS'http://gz.lianjia.com/chengjiao/GZ0001512558.html'
p1009
aS'http://gz.lianjia.com/chengjiao/GZ0001752873.html'
p1010
aS'http://gz.lianjia.com/chengjiao/GZ0002083876.html'
p1011
aS'http://gz.lianjia.com/chengjiao/GZ0001796232.html'
p1012
aS'http://gz.lianjia.com/chengjiao/GZ0002187134.html'
p1013
aS'http://gz.lianjia.com/chengjiao/GZ0001660205.html'
p1014
aS'http://gz.lianjia.com/chengjiao/GZ0001917056.html'
p1015
aS'http://gz.lianjia.com/chengjiao/GZ0001750324.html'
p1016
aS'http://gz.lianjia.com/chengjiao/GZ0002278231.html'
p1017
aS'http://gz.lianjia.com/chengjiao/GZ0002156143.html'
p1018
aS'http://gz.lianjia.com/chengjiao/GZ0001280423.html'
p1019
aS'http://gz.lianjia.com/chengjiao/GZ0001551508.html'
p1020
aS'http://gz.lianjia.com/chengjiao/GZ0002565598.html'
p1021
aS'http://gz.lianjia.com/chengjiao/GZ0002236687.html'
p1022
aS'http://gz.lianjia.com/chengjiao/GZ0001774349.html'
p1023
aS'http://gz.lianjia.com/chengjiao/GZ0001396509.html'
p1024
aS'http://gz.lianjia.com/chengjiao/GZ0002398396.html'
p1025
aS'http://gz.lianjia.com/chengjiao/GZ0002192579.html'
p1026
aS'http://gz.lianjia.com/chengjiao/GZ0001870021.html'
p1027
aS'http://gz.lianjia.com/chengjiao/GZ0001832670.html'
p1028
aS'http://gz.lianjia.com/chengjiao/GZ0002166237.html'
p1029
aS'http://gz.lianjia.com/chengjiao/GZ0002530212.html'
p1030
aS'http://gz.lianjia.com/chengjiao/GZ0001355683.html'
p1031
aS'http://gz.lianjia.com/chengjiao/GZ0002358183.html'
p1032
aS'http://gz.lianjia.com/chengjiao/GZ0002121015.html'
p1033
aS'http://gz.lianjia.com/chengjiao/GZ0001833673.html'
p1034
aS'http://gz.lianjia.com/chengjiao/GZ0002332001.html'
p1035
aS'http://gz.lianjia.com/chengjiao/GZ0001467479.html'
p1036
aS'http://gz.lianjia.com/chengjiao/GZ0001870697.html'
p1037
aS'http://gz.lianjia.com/chengjiao/GZ0001815650.html'
p1038
aS'http://gz.lianjia.com/chengjiao/GZ0001796073.html'
p1039
aS'http://gz.lianjia.com/chengjiao/GZ0002287641.html'
p1040
aS'http://gz.lianjia.com/chengjiao/GZ0002125453.html'
p1041
aS'http://gz.lianjia.com/chengjiao/GZ0002343397.html'
p1042
aS'http://gz.lianjia.com/chengjiao/GZ0002196020.html'
p1043
aS'http://gz.lianjia.com/chengjiao/GZ0002430256.html'
p1044
aS'http://gz.lianjia.com/chengjiao/GZ0001892245.html'
p1045
aS'http://gz.lianjia.com/chengjiao/GZ0002185159.html'
p1046
aS'http://gz.lianjia.com/chengjiao/GZ0001231597.html'
p1047
aS'http://gz.lianjia.com/chengjiao/GZ0001939843.html'
p1048
aS'http://gz.lianjia.com/chengjiao/GZ0001574914.html'
p1049
aS'http://gz.lianjia.com/chengjiao/GZ0002529109.html'
p1050
aS'http://gz.lianjia.com/chengjiao/GZ0002185559.html'
p1051
aS'http://gz.lianjia.com/chengjiao/GZ0002373700.html'
p1052
aS'http://gz.lianjia.com/chengjiao/GZ0001886432.html'
p1053
aS'http://gz.lianjia.com/chengjiao/GZ0002536869.html'
p1054
aS'http://gz.lianjia.com/chengjiao/GZ0001271520.html'
p1055
aS'http://gz.lianjia.com/chengjiao/GZ0001872413.html'
p1056
aS'http://gz.lianjia.com/chengjiao/GZ0001260948.html'
p1057
aS'http://gz.lianjia.com/chengjiao/GZ0002453631.html'
p1058
aS'http://gz.lianjia.com/chengjiao/GZ0002523007.html'
p1059
aS'http://gz.lianjia.com/chengjiao/GZ0001765008.html'
p1060
aS'http://gz.lianjia.com/chengjiao/GZ0002262478.html'
p1061
aS'http://gz.lianjia.com/chengjiao/GZ0002262692.html'
p1062
aS'http://gz.lianjia.com/chengjiao/GZ0001288652.html'
p1063
aS'http://gz.lianjia.com/chengjiao/GZ0001813980.html'
p1064
aS'http://gz.lianjia.com/chengjiao/GZ0002092358.html'
p1065
aS'http://gz.lianjia.com/chengjiao/GZ0002299940.html'
p1066
aS'http://gz.lianjia.com/chengjiao/GZ0002242040.html'
p1067
aS'http://gz.lianjia.com/chengjiao/GZ0001753927.html'
p1068
aS'http://gz.lianjia.com/chengjiao/GZ0002094227.html'
p1069
aS'http://gz.lianjia.com/chengjiao/GZ0002068681.html'
p1070
aS'http://gz.lianjia.com/chengjiao/GZ0002262086.html'
p1071
aS'http://gz.lianjia.com/chengjiao/GZ0001789530.html'
p1072
aS'http://gz.lianjia.com/chengjiao/GZ0001265210.html'
p1073
aS'http://gz.lianjia.com/chengjiao/GZ0002150023.html'
p1074
aS'http://gz.lianjia.com/chengjiao/GZ0001467376.html'
p1075
aS'http://gz.lianjia.com/chengjiao/GZ0001974867.html'
p1076
aS'http://gz.lianjia.com/chengjiao/GZ0002224223.html'
p1077
aS'http://gz.lianjia.com/chengjiao/GZ0002384625.html'
p1078
aS'http://gz.lianjia.com/chengjiao/GZ0002325760.html'
p1079
aS'http://gz.lianjia.com/chengjiao/GZ0001802339.html'
p1080
aS'http://gz.lianjia.com/chengjiao/GZ0001518936.html'
p1081
aS'http://gz.lianjia.com/chengjiao/GZ0002164001.html'
p1082
aS'http://gz.lianjia.com/chengjiao/GZ0001667858.html'
p1083
aS'http://gz.lianjia.com/chengjiao/GZ0001635828.html'
p1084
aS'http://gz.lianjia.com/chengjiao/GZ0001359355.html'
p1085
aS'http://gz.lianjia.com/chengjiao/GZ0001759806.html'
p1086
aS'http://gz.lianjia.com/chengjiao/GZ0001960480.html'
p1087
aS'http://gz.lianjia.com/chengjiao/GZ0001509954.html'
p1088
aS'http://gz.lianjia.com/chengjiao/GZ0001705757.html'
p1089
aS'http://gz.lianjia.com/chengjiao/GZ0002175646.html'
p1090
aS'http://gz.lianjia.com/chengjiao/GZ0002096947.html'
p1091
aS'http://gz.lianjia.com/chengjiao/GZ0002003258.html'
p1092
aS'http://gz.lianjia.com/chengjiao/GZ0002286290.html'
p1093
aS'http://gz.lianjia.com/chengjiao/GZ0001723829.html'
p1094
aS'http://gz.lianjia.com/chengjiao/GZ0001614235.html'
p1095
aS'http://gz.lianjia.com/chengjiao/GZ0001947531.html'
p1096
aS'http://gz.lianjia.com/chengjiao/GZ0001718639.html'
p1097
aS'http://gz.lianjia.com/chengjiao/GZ0001777382.html'
p1098
aS'http://gz.lianjia.com/chengjiao/GZ0001460783.html'
p1099
aS'http://gz.lianjia.com/chengjiao/GZ0002185070.html'
p1100
aS'http://gz.lianjia.com/chengjiao/GZ0002188526.html'
p1101
aS'http://gz.lianjia.com/chengjiao/GZ0002185055.html'
p1102
aS'http://gz.lianjia.com/chengjiao/GZ0001452524.html'
p1103
aS'http://gz.lianjia.com/chengjiao/GZ0001697941.html'
p1104
aS'http://gz.lianjia.com/chengjiao/GZ0001530610.html'
p1105
aS'http://gz.lianjia.com/chengjiao/GZ0002326418.html'
p1106
aS'http://gz.lianjia.com/chengjiao/GZ0002595994.html'
p1107
aS'http://gz.lianjia.com/chengjiao/GZ0002169424.html'
p1108
aS'http://gz.lianjia.com/chengjiao/GZ0002407745.html'
p1109
aS'http://gz.lianjia.com/chengjiao/GZ0002530905.html'
p1110
aS'http://gz.lianjia.com/chengjiao/GZ0002533888.html'
p1111
aS'http://gz.lianjia.com/chengjiao/GZ0001936051.html'
p1112
aS'http://gz.lianjia.com/chengjiao/GZ0002186363.html'
p1113
aS'http://gz.lianjia.com/chengjiao/GZ0001550834.html'
p1114
aS'http://gz.lianjia.com/chengjiao/GZ0002196334.html'
p1115
aS'http://gz.lianjia.com/chengjiao/GZ0002333973.html'
p1116
aS'http://gz.lianjia.com/chengjiao/GZ0001835356.html'
p1117
aS'http://gz.lianjia.com/chengjiao/GZ0001365283.html'
p1118
aS'http://gz.lianjia.com/chengjiao/GZ0001723957.html'
p1119
aS'http://gz.lianjia.com/chengjiao/GZ0002430861.html'
p1120
aS'http://gz.lianjia.com/chengjiao/GZ0001621773.html'
p1121
aS'http://gz.lianjia.com/chengjiao/GZ0001238113.html'
p1122
aS'http://gz.lianjia.com/chengjiao/GZ0001264775.html'
p1123
aS'http://gz.lianjia.com/chengjiao/GZ0001613765.html'
p1124
aS'http://gz.lianjia.com/chengjiao/GZ0002302878.html'
p1125
aS'http://gz.lianjia.com/chengjiao/GZ0001668449.html'
p1126
aS'http://gz.lianjia.com/chengjiao/GZ0001872943.html'
p1127
aS'http://gz.lianjia.com/chengjiao/GZ0001861443.html'
p1128
aS'http://gz.lianjia.com/chengjiao/GZ0001763793.html'
p1129
aS'http://gz.lianjia.com/chengjiao/GZ0002398043.html'
p1130
aS'http://gz.lianjia.com/chengjiao/GZ0002303757.html'
p1131
aS'http://gz.lianjia.com/chengjiao/GZ0002417647.html'
p1132
aS'http://gz.lianjia.com/chengjiao/GZ0001821571.html'
p1133
aS'http://gz.lianjia.com/chengjiao/GZ0001976085.html'
p1134
aS'http://gz.lianjia.com/chengjiao/GZ0001262570.html'
p1135
aS'http://gz.lianjia.com/chengjiao/GZ0001947955.html'
p1136
aS'http://gz.lianjia.com/chengjiao/GZ0002131155.html'
p1137
aS'http://gz.lianjia.com/chengjiao/GZ0001370441.html'
p1138
aS'http://gz.lianjia.com/chengjiao/GZ0001443036.html'
p1139
aS'http://gz.lianjia.com/chengjiao/GZ0001759807.html'
p1140
aS'http://gz.lianjia.com/chengjiao/GZ0001335494.html'
p1141
aS'http://gz.lianjia.com/chengjiao/GZ0001697746.html'
p1142
aS'http://gz.lianjia.com/chengjiao/GZ0002321525.html'
p1143
aS'http://gz.lianjia.com/chengjiao/GZ0002321014.html'
p1144
aS'http://gz.lianjia.com/chengjiao/GZ0002375862.html'
p1145
aS'http://gz.lianjia.com/chengjiao/GZ0001735114.html'
p1146
aS'http://gz.lianjia.com/chengjiao/GZ0002250096.html'
p1147
aS'http://gz.lianjia.com/chengjiao/GZ0001366190.html'
p1148
aS'http://gz.lianjia.com/chengjiao/GZ0001906638.html'
p1149
aS'http://gz.lianjia.com/chengjiao/GZ0002200250.html'
p1150
aS'http://gz.lianjia.com/chengjiao/GZ0001691782.html'
p1151
aS'http://gz.lianjia.com/chengjiao/GZ0002168562.html'
p1152
aS'http://gz.lianjia.com/chengjiao/GZ0002001830.html'
p1153
aS'http://gz.lianjia.com/chengjiao/GZ0002185815.html'
p1154
aS'http://gz.lianjia.com/chengjiao/GZ0001747965.html'
p1155
aS'http://gz.lianjia.com/chengjiao/GZ0002536529.html'
p1156
aS'http://gz.lianjia.com/chengjiao/GZ0002437023.html'
p1157
aS'http://gz.lianjia.com/chengjiao/GZ0002202985.html'
p1158
aS'http://gz.lianjia.com/chengjiao/GZ0001911462.html'
p1159
aS'http://gz.lianjia.com/chengjiao/GZ0002268969.html'
p1160
aS'http://gz.lianjia.com/chengjiao/GZ0002267948.html'
p1161
aS'http://gz.lianjia.com/chengjiao/GZ0001608744.html'
p1162
aS'http://gz.lianjia.com/chengjiao/GZ0001856283.html'
p1163
aS'http://gz.lianjia.com/chengjiao/GZ0002243452.html'
p1164
aS'http://gz.lianjia.com/chengjiao/GZ0002297961.html'
p1165
aS'http://gz.lianjia.com/chengjiao/GZ0001392098.html'
p1166
aS'http://gz.lianjia.com/chengjiao/GZ0002000813.html'
p1167
aS'http://gz.lianjia.com/chengjiao/GZ0002434165.html'
p1168
aS'http://gz.lianjia.com/chengjiao/GZ0001938615.html'
p1169
aS'http://gz.lianjia.com/chengjiao/GZ0001792010.html'
p1170
aS'http://gz.lianjia.com/chengjiao/GZ0001992993.html'
p1171
aS'http://gz.lianjia.com/chengjiao/GZ0002335463.html'
p1172
aS'http://gz.lianjia.com/chengjiao/GZ0001969893.html'
p1173
aS'http://gz.lianjia.com/chengjiao/GZ0002313068.html'
p1174
aS'http://gz.lianjia.com/chengjiao/GZ0002257503.html'
p1175
aS'http://gz.lianjia.com/chengjiao/GZ0001974126.html'
p1176
aS'http://gz.lianjia.com/chengjiao/GZ0001773088.html'
p1177
aS'http://gz.lianjia.com/chengjiao/GZ0002088220.html'
p1178
aS'http://gz.lianjia.com/chengjiao/GZ0001680475.html'
p1179
aS'http://gz.lianjia.com/chengjiao/GZ0001941894.html'
p1180
aS'http://gz.lianjia.com/chengjiao/GZ0002575286.html'
p1181
aS'http://gz.lianjia.com/chengjiao/GZ0002590811.html'
p1182
aS'http://gz.lianjia.com/chengjiao/GZ0001657905.html'
p1183
aS'http://gz.lianjia.com/chengjiao/GZ0001511494.html'
p1184
aS'http://gz.lianjia.com/chengjiao/GZ0002180387.html'
p1185
aS'http://gz.lianjia.com/chengjiao/GZ0001974216.html'
p1186
aS'http://gz.lianjia.com/chengjiao/GZ0001946425.html'
p1187
aS'http://gz.lianjia.com/chengjiao/GZ0001968654.html'
p1188
aS'http://gz.lianjia.com/chengjiao/GZ0001887208.html'
p1189
aS'http://gz.lianjia.com/chengjiao/GZ0002196922.html'
p1190
aS'http://gz.lianjia.com/chengjiao/GZ0002296208.html'
p1191
aS'http://gz.lianjia.com/chengjiao/GZ0001432203.html'
p1192
aS'http://gz.lianjia.com/chengjiao/GZ0002158781.html'
p1193
aS'http://gz.lianjia.com/chengjiao/GZ0002234853.html'
p1194
aS'http://gz.lianjia.com/chengjiao/GZ0002405556.html'
p1195
aS'http://gz.lianjia.com/chengjiao/GZ0001912863.html'
p1196
aS'http://gz.lianjia.com/chengjiao/GZ0001694118.html'
p1197
aS'http://gz.lianjia.com/chengjiao/GZ0002345178.html'
p1198
aS'http://gz.lianjia.com/chengjiao/GZ0002377844.html'
p1199
aS'http://gz.lianjia.com/chengjiao/GZ0001871348.html'
p1200
aS'http://gz.lianjia.com/chengjiao/GZ0001993621.html'
p1201
aS'http://gz.lianjia.com/chengjiao/GZ0002378871.html'
p1202
aS'http://gz.lianjia.com/chengjiao/GZ0002397873.html'
p1203
aS'http://gz.lianjia.com/chengjiao/GZ0001937195.html'
p1204
aS'http://gz.lianjia.com/chengjiao/GZ0001339643.html'
p1205
aS'http://gz.lianjia.com/chengjiao/GZ0002395371.html'
p1206
aS'http://gz.lianjia.com/chengjiao/GZ0002187189.html'
p1207
aS'http://gz.lianjia.com/chengjiao/GZ0002163776.html'
p1208
aS'http://gz.lianjia.com/chengjiao/GZ0002233588.html'
p1209
aS'http://gz.lianjia.com/chengjiao/GZ0001258501.html'
p1210
aS'http://gz.lianjia.com/chengjiao/GZ0001705270.html'
p1211
aS'http://gz.lianjia.com/chengjiao/GZ0002069190.html'
p1212
aS'http://gz.lianjia.com/chengjiao/GZ0001260370.html'
p1213
aS'http://gz.lianjia.com/chengjiao/GZ0001622475.html'
p1214
aS'http://gz.lianjia.com/chengjiao/GZ0002314022.html'
p1215
aS'http://gz.lianjia.com/chengjiao/GZ0002082007.html'
p1216
aS'http://gz.lianjia.com/chengjiao/GZ0002334768.html'
p1217
aS'http://gz.lianjia.com/chengjiao/GZ0001807740.html'
p1218
aS'http://gz.lianjia.com/chengjiao/GZ0002311125.html'
p1219
aS'http://gz.lianjia.com/chengjiao/GZ0002180286.html'
p1220
aS'http://gz.lianjia.com/chengjiao/GZ0002187156.html'
p1221
aS'http://gz.lianjia.com/chengjiao/GZ0002382358.html'
p1222
aS'http://gz.lianjia.com/chengjiao/GZ0002301259.html'
p1223
aS'http://gz.lianjia.com/chengjiao/GZ0002187528.html'
p1224
aS'http://gz.lianjia.com/chengjiao/GZ0001495566.html'
p1225
aS'http://gz.lianjia.com/chengjiao/GZ0002202745.html'
p1226
aS'http://gz.lianjia.com/chengjiao/GZ0002302027.html'
p1227
aS'http://gz.lianjia.com/chengjiao/GZ0001239815.html'
p1228
aS'http://gz.lianjia.com/chengjiao/GZ0001752654.html'
p1229
aS'http://gz.lianjia.com/chengjiao/GZ0001991941.html'
p1230
aS'http://gz.lianjia.com/chengjiao/GZ0001574804.html'
p1231
aS'http://gz.lianjia.com/chengjiao/GZ0002326587.html'
p1232
aS'http://gz.lianjia.com/chengjiao/GZ0002051901.html'
p1233
aS'http://gz.lianjia.com/chengjiao/GZ0002266611.html'
p1234
aS'http://gz.lianjia.com/chengjiao/GZ0001587579.html'
p1235
aS'http://gz.lianjia.com/chengjiao/GZ0001753901.html'
p1236
aS'http://gz.lianjia.com/chengjiao/GZ0002302882.html'
p1237
aS'http://gz.lianjia.com/chengjiao/GZ0002295818.html'
p1238
aS'http://gz.lianjia.com/chengjiao/GZ0001995276.html'
p1239
aS'http://gz.lianjia.com/chengjiao/GZ0002192581.html'
p1240
aS'http://gz.lianjia.com/chengjiao/GZ0001662220.html'
p1241
aS'http://gz.lianjia.com/chengjiao/GZ0001399244.html'
p1242
aS'http://gz.lianjia.com/chengjiao/GZ0001931560.html'
p1243
aS'http://gz.lianjia.com/chengjiao/GZ0001780796.html'
p1244
aS'http://gz.lianjia.com/chengjiao/GZ0001663050.html'
p1245
aS'http://gz.lianjia.com/chengjiao/GZ0002185563.html'
p1246
aS'http://gz.lianjia.com/chengjiao/GZ0001529666.html'
p1247
aS'http://gz.lianjia.com/chengjiao/GZ0001465977.html'
p1248
aS'http://gz.lianjia.com/chengjiao/GZ0001390938.html'
p1249
aS'http://gz.lianjia.com/chengjiao/GZ0001707725.html'
p1250
aS'http://gz.lianjia.com/chengjiao/GZ0002385831.html'
p1251
aS'http://gz.lianjia.com/chengjiao/GZ0001918077.html'
p1252
aS'http://gz.lianjia.com/chengjiao/GZ0002319330.html'
p1253
aS'http://gz.lianjia.com/chengjiao/GZ0002315264.html'
p1254
aS'http://gz.lianjia.com/chengjiao/GZ0001616818.html'
p1255
aS'http://gz.lianjia.com/chengjiao/GZ0001626745.html'
p1256
aS'http://gz.lianjia.com/chengjiao/GZ0001877122.html'
p1257
aS'http://gz.lianjia.com/chengjiao/GZ0001898616.html'
p1258
aS'http://gz.lianjia.com/chengjiao/GZ0002324378.html'
p1259
aS'http://gz.lianjia.com/chengjiao/GZ0001674992.html'
p1260
aS'http://gz.lianjia.com/chengjiao/GZ0001637547.html'
p1261
aS'http://gz.lianjia.com/chengjiao/GZ0001550012.html'
p1262
aS'http://gz.lianjia.com/chengjiao/GZ0001684591.html'
p1263
aS'http://gz.lianjia.com/chengjiao/GZ0001341897.html'
p1264
aS'http://gz.lianjia.com/chengjiao/GZ0002091210.html'
p1265
aS'http://gz.lianjia.com/chengjiao/GZ0001787173.html'
p1266
aS'http://gz.lianjia.com/chengjiao/GZ0001827973.html'
p1267
aS'http://gz.lianjia.com/chengjiao/GZ0002167162.html'
p1268
aS'http://gz.lianjia.com/chengjiao/GZ0001577031.html'
p1269
aS'http://gz.lianjia.com/chengjiao/GZ0002154129.html'
p1270
aS'http://gz.lianjia.com/chengjiao/GZ0002238361.html'
p1271
aS'http://gz.lianjia.com/chengjiao/GZ0002169272.html'
p1272
aS'http://gz.lianjia.com/chengjiao/GZ0001679600.html'
p1273
aS'http://gz.lianjia.com/chengjiao/GZ0002389983.html'
p1274
aS'http://gz.lianjia.com/chengjiao/GZ0002045419.html'
p1275
aS'http://gz.lianjia.com/chengjiao/GZ0002270092.html'
p1276
aS'http://gz.lianjia.com/chengjiao/GZ0001613175.html'
p1277
aS'http://gz.lianjia.com/chengjiao/GZ0001943871.html'
p1278
aS'http://gz.lianjia.com/chengjiao/GZ0001560831.html'
p1279
aS'http://gz.lianjia.com/chengjiao/GZ0002157714.html'
p1280
aS'http://gz.lianjia.com/chengjiao/GZ0001259027.html'
p1281
aS'http://gz.lianjia.com/chengjiao/GZ0001667047.html'
p1282
aS'http://gz.lianjia.com/chengjiao/GZ0001877120.html'
p1283
aS'http://gz.lianjia.com/chengjiao/GZ0001467308.html'
p1284
aS'http://gz.lianjia.com/chengjiao/GZ0001710299.html'
p1285
aS'http://gz.lianjia.com/chengjiao/GZ0002257913.html'
p1286
aS'http://gz.lianjia.com/chengjiao/GZ0002157705.html'
p1287
aS'http://gz.lianjia.com/chengjiao/GZ0002328142.html'
p1288
aS'http://gz.lianjia.com/chengjiao/GZ0002410163.html'
p1289
aS'http://gz.lianjia.com/chengjiao/GZ0002163943.html'
p1290
aS'http://gz.lianjia.com/chengjiao/GZ0002195657.html'
p1291
aS'http://gz.lianjia.com/chengjiao/GZ0002199218.html'
p1292
aS'http://gz.lianjia.com/chengjiao/GZ0001361107.html'
p1293
aS'http://gz.lianjia.com/chengjiao/GZ0001694112.html'
p1294
aS'http://gz.lianjia.com/chengjiao/GZ0002394805.html'
p1295
aS'http://gz.lianjia.com/chengjiao/GZ0002270699.html'
p1296
aS'http://gz.lianjia.com/chengjiao/GZ0001603915.html'
p1297
aS'http://gz.lianjia.com/chengjiao/GZ0002162173.html'
p1298
aS'http://gz.lianjia.com/chengjiao/GZ0002303855.html'
p1299
aS'http://gz.lianjia.com/chengjiao/GZ0001265138.html'
p1300
aS'http://gz.lianjia.com/chengjiao/GZ0001784840.html'
p1301
aS'http://gz.lianjia.com/chengjiao/GZ0002449693.html'
p1302
aS'http://gz.lianjia.com/chengjiao/GZ0001773827.html'
p1303
aS'http://gz.lianjia.com/chengjiao/GZ0002302943.html'
p1304
aS'http://gz.lianjia.com/chengjiao/GZ0002090297.html'
p1305
aS'http://gz.lianjia.com/chengjiao/GZ0001762577.html'
p1306
aS'http://gz.lianjia.com/chengjiao/GZ0002195268.html'
p1307
aS'http://gz.lianjia.com/chengjiao/GZ0002245060.html'
p1308
aS'http://gz.lianjia.com/chengjiao/GZ0002414048.html'
p1309
aS'http://gz.lianjia.com/chengjiao/GZ0001530781.html'
p1310
aS'http://gz.lianjia.com/chengjiao/GZ0002300943.html'
p1311
aS'http://gz.lianjia.com/chengjiao/GZ0001488312.html'
p1312
aS'http://gz.lianjia.com/chengjiao/GZ0002552213.html'
p1313
aS'http://gz.lianjia.com/chengjiao/GZ0001385721.html'
p1314
aS'http://gz.lianjia.com/chengjiao/GZ0001281231.html'
p1315
aS'http://gz.lianjia.com/chengjiao/GZ0001624837.html'
p1316
aS'http://gz.lianjia.com/chengjiao/GZ0001674757.html'
p1317
aS'http://gz.lianjia.com/chengjiao/GZ0001567091.html'
p1318
aS'http://gz.lianjia.com/chengjiao/GZ0001606606.html'
p1319
aS'http://gz.lianjia.com/chengjiao/GZ0001233460.html'
p1320
aS'http://gz.lianjia.com/chengjiao/GZ0002159856.html'
p1321
aS'http://gz.lianjia.com/chengjiao/GZ0002128354.html'
p1322
aS'http://gz.lianjia.com/chengjiao/GZ0002186716.html'
p1323
aS'http://gz.lianjia.com/chengjiao/GZ0001965900.html'
p1324
aS'http://gz.lianjia.com/chengjiao/GZ0002325172.html'
p1325
aS'http://gz.lianjia.com/chengjiao/GZ0001970182.html'
p1326
aS'http://gz.lianjia.com/chengjiao/GZ0002368445.html'
p1327
aS'http://gz.lianjia.com/chengjiao/GZ0002048846.html'
p1328
aS'http://gz.lianjia.com/chengjiao/GZ0002198943.html'
p1329
aS'http://gz.lianjia.com/chengjiao/GZ0002239894.html'
p1330
aS'http://gz.lianjia.com/chengjiao/GZ0001752712.html'
p1331
aS'http://gz.lianjia.com/chengjiao/GZ0001705045.html'
p1332
aS'http://gz.lianjia.com/chengjiao/GZ0001278769.html'
p1333
aS'http://gz.lianjia.com/chengjiao/GZ0002002646.html'
p1334
aS'http://gz.lianjia.com/chengjiao/GZ0002407643.html'
p1335
aS'http://gz.lianjia.com/chengjiao/GZ0001871283.html'
p1336
aS'http://gz.lianjia.com/chengjiao/GZ0001375178.html'
p1337
aS'http://gz.lianjia.com/chengjiao/GZ0001704500.html'
p1338
aS'http://gz.lianjia.com/chengjiao/GZ0002407676.html'
p1339
aS'http://gz.lianjia.com/chengjiao/GZ0001328113.html'
p1340
aS'http://gz.lianjia.com/chengjiao/GZ0001969064.html'
p1341
aS'http://gz.lianjia.com/chengjiao/GZ0002195401.html'
p1342
aS'http://gz.lianjia.com/chengjiao/GZ0001638461.html'
p1343
aS'http://gz.lianjia.com/chengjiao/GZ0002409125.html'
p1344
aS'http://gz.lianjia.com/chengjiao/GZ0001512484.html'
p1345
aS'http://gz.lianjia.com/chengjiao/GZ0001856993.html'
p1346
aS'http://gz.lianjia.com/chengjiao/GZ0002079225.html'
p1347
aS'http://gz.lianjia.com/chengjiao/GZ0002335506.html'
p1348
aS'http://gz.lianjia.com/chengjiao/GZ0002522765.html'
p1349
aS'http://gz.lianjia.com/chengjiao/GZ0001934305.html'
p1350
aS'http://gz.lianjia.com/chengjiao/GZ0002162079.html'
p1351
aS'http://gz.lianjia.com/chengjiao/GZ0002199538.html'
p1352
aS'http://gz.lianjia.com/chengjiao/GZ0001960646.html'
p1353
aS'http://gz.lianjia.com/chengjiao/GZ0002259133.html'
p1354
aS'http://gz.lianjia.com/chengjiao/GZ0001277804.html'
p1355
aS'http://gz.lianjia.com/chengjiao/GZ0002526294.html'
p1356
aS'http://gz.lianjia.com/chengjiao/GZ0002187467.html'
p1357
aS'http://gz.lianjia.com/chengjiao/GZ0002401586.html'
p1358
aS'http://gz.lianjia.com/chengjiao/GZ0002458519.html'
p1359
aS'http://gz.lianjia.com/chengjiao/GZ0001255528.html'
p1360
aS'http://gz.lianjia.com/chengjiao/GZ0002190445.html'
p1361
aS'http://gz.lianjia.com/chengjiao/GZ0002449756.html'
p1362
aS'http://gz.lianjia.com/chengjiao/GZ0002085438.html'
p1363
aS'http://gz.lianjia.com/chengjiao/GZ0002526200.html'
p1364
aS'http://gz.lianjia.com/chengjiao/GZ0002438048.html'
p1365
aS'http://gz.lianjia.com/chengjiao/GZ0001756443.html'
p1366
aS'http://gz.lianjia.com/chengjiao/GZ0001997215.html'
p1367
aS'http://gz.lianjia.com/chengjiao/GZ0002238330.html'
p1368
aS'http://gz.lianjia.com/chengjiao/GZ0001534941.html'
p1369
aS'http://gz.lianjia.com/chengjiao/GZ0002422216.html'
p1370
aS'http://gz.lianjia.com/chengjiao/GZ0001867194.html'
p1371
aS'http://gz.lianjia.com/chengjiao/GZ0001675405.html'
p1372
aS'http://gz.lianjia.com/chengjiao/GZ0002390836.html'
p1373
aS'http://gz.lianjia.com/chengjiao/GZ0001877082.html'
p1374
aS'http://gz.lianjia.com/chengjiao/GZ0001942812.html'
p1375
aS'http://gz.lianjia.com/chengjiao/GZ0002168153.html'
p1376
aS'http://gz.lianjia.com/chengjiao/GZ0001996558.html'
p1377
aS'http://gz.lianjia.com/chengjiao/GZ0001746046.html'
p1378
aS'http://gz.lianjia.com/chengjiao/GZ0002287288.html'
p1379
aS'http://gz.lianjia.com/chengjiao/GZ0002195561.html'
p1380
aS'http://gz.lianjia.com/chengjiao/GZ0002261904.html'
p1381
aS'http://gz.lianjia.com/chengjiao/GZ0002442524.html'
p1382
aS'http://gz.lianjia.com/chengjiao/GZ0001819831.html'
p1383
aS'http://gz.lianjia.com/chengjiao/GZ0002375476.html'
p1384
aS'http://gz.lianjia.com/chengjiao/GZ0001923634.html'
p1385
aS'http://gz.lianjia.com/chengjiao/GZ0001596941.html'
p1386
aS'http://gz.lianjia.com/chengjiao/GZ0002393024.html'
p1387
aS'http://gz.lianjia.com/chengjiao/GZ0001635712.html'
p1388
aS'http://gz.lianjia.com/chengjiao/GZ0001961835.html'
p1389
aS'http://gz.lianjia.com/chengjiao/GZ0002321879.html'
p1390
aS'http://gz.lianjia.com/chengjiao/GZ0001762573.html'
p1391
aS'http://gz.lianjia.com/chengjiao/GZ0002382254.html'
p1392
aS'http://gz.lianjia.com/chengjiao/GZ0001279675.html'
p1393
aS'http://gz.lianjia.com/chengjiao/GZ0001250579.html'
p1394
aS'http://gz.lianjia.com/chengjiao/GZ0001429982.html'
p1395
aS'http://gz.lianjia.com/chengjiao/GZ0002526453.html'
p1396
aS'http://gz.lianjia.com/chengjiao/GZ0001749193.html'
p1397
aS'http://gz.lianjia.com/chengjiao/GZ0002192375.html'
p1398
aS'http://gz.lianjia.com/chengjiao/GZ0001634653.html'
p1399
aS'http://gz.lianjia.com/chengjiao/GZ0001482488.html'
p1400
aS'http://gz.lianjia.com/chengjiao/GZ0002392096.html'
p1401
aS'http://gz.lianjia.com/chengjiao/GZ0001777004.html'
p1402
aS'http://gz.lianjia.com/chengjiao/GZ0001752713.html'
p1403
aS'http://gz.lianjia.com/chengjiao/GZ0002330448.html'
p1404
aS'http://gz.lianjia.com/chengjiao/GZ0002413144.html'
p1405
aS'http://gz.lianjia.com/chengjiao/GZ0002406624.html'
p1406
aS'http://gz.lianjia.com/chengjiao/GZ0002427586.html'
p1407
aS'http://gz.lianjia.com/chengjiao/GZ0001617314.html'
p1408
aS'http://gz.lianjia.com/chengjiao/GZ0002167524.html'
p1409
aS'http://gz.lianjia.com/chengjiao/GZ0002582357.html'
p1410
aS'http://gz.lianjia.com/chengjiao/GZ0002235168.html'
p1411
aS'http://gz.lianjia.com/chengjiao/GZ0001959904.html'
p1412
aS'http://gz.lianjia.com/chengjiao/GZ0002271253.html'
p1413
aS'http://gz.lianjia.com/chengjiao/GZ0002241851.html'
p1414
aS'http://gz.lianjia.com/chengjiao/GZ0001548791.html'
p1415
aS'http://gz.lianjia.com/chengjiao/GZ0002385321.html'
p1416
aS'http://gz.lianjia.com/chengjiao/GZ0002136219.html'
p1417
aS'http://gz.lianjia.com/chengjiao/GZ0001893525.html'
p1418
aS'http://gz.lianjia.com/chengjiao/GZ0002180404.html'
p1419
aS'http://gz.lianjia.com/chengjiao/GZ0002262585.html'
p1420
aS'http://gz.lianjia.com/chengjiao/GZ0001615719.html'
p1421
aS'http://gz.lianjia.com/chengjiao/GZ0001595670.html'
p1422
aS'http://gz.lianjia.com/chengjiao/GZ0002300404.html'
p1423
aS'http://gz.lianjia.com/chengjiao/GZ0002303133.html'
p1424
aS'http://gz.lianjia.com/chengjiao/GZ0002185742.html'
p1425
aS'http://gz.lianjia.com/chengjiao/GZ0002004569.html'
p1426
aS'http://gz.lianjia.com/chengjiao/GZ0002070540.html'
p1427
aS'http://gz.lianjia.com/chengjiao/GZ0001447348.html'
p1428
aS'http://gz.lianjia.com/chengjiao/GZ0001604728.html'
p1429
aS'http://gz.lianjia.com/chengjiao/GZ0001633956.html'
p1430
aS'http://gz.lianjia.com/chengjiao/GZ0002178179.html'
p1431
aS'http://gz.lianjia.com/chengjiao/GZ0002326998.html'
p1432
aS'http://gz.lianjia.com/chengjiao/GZ0002045641.html'
p1433
aS'http://gz.lianjia.com/chengjiao/GZ0001652822.html'
p1434
aS'http://gz.lianjia.com/chengjiao/GZ0001242427.html'
p1435
aS'http://gz.lianjia.com/chengjiao/GZ0001751721.html'
p1436
aS'http://gz.lianjia.com/chengjiao/GZ0001987307.html'
p1437
aS'http://gz.lianjia.com/chengjiao/GZ0002240067.html'
p1438
aS'http://gz.lianjia.com/chengjiao/GZ0001548633.html'
p1439
aS'http://gz.lianjia.com/chengjiao/GZ0002296329.html'
p1440
aS'http://gz.lianjia.com/chengjiao/GZ0002185820.html'
p1441
aS'http://gz.lianjia.com/chengjiao/GZ0001662797.html'
p1442
aS'http://gz.lianjia.com/chengjiao/GZ0001381998.html'
p1443
aS'http://gz.lianjia.com/chengjiao/GZ0001562586.html'
p1444
aS'http://gz.lianjia.com/chengjiao/GZ0002429092.html'
p1445
aS'http://gz.lianjia.com/chengjiao/GZ0002342580.html'
p1446
aS'http://gz.lianjia.com/chengjiao/GZ0002290459.html'
p1447
aS'http://gz.lianjia.com/chengjiao/GZ0002226324.html'
p1448
aS'http://gz.lianjia.com/chengjiao/GZ0001373783.html'
p1449
aS'http://gz.lianjia.com/chengjiao/GZ0002099968.html'
p1450
aS'http://gz.lianjia.com/chengjiao/GZ0002236634.html'
p1451
aS'http://gz.lianjia.com/chengjiao/GZ0001398227.html'
p1452
aS'http://gz.lianjia.com/chengjiao/GZ0002065826.html'
p1453
aS'http://gz.lianjia.com/chengjiao/GZ0001549448.html'
p1454
aS'http://gz.lianjia.com/chengjiao/GZ0001482581.html'
p1455
aS'http://gz.lianjia.com/chengjiao/GZ0001356090.html'
p1456
aS'http://gz.lianjia.com/chengjiao/GZ0002198734.html'
p1457
aS'http://gz.lianjia.com/chengjiao/GZ0001997229.html'
p1458
aS'http://gz.lianjia.com/chengjiao/GZ0002238138.html'
p1459
aS'http://gz.lianjia.com/chengjiao/GZ0002173709.html'
p1460
aS'http://gz.lianjia.com/chengjiao/GZ0001861345.html'
p1461
aS'http://gz.lianjia.com/chengjiao/GZ0002455524.html'
p1462
aS'http://gz.lianjia.com/chengjiao/GZ0002190440.html'
p1463
aS'http://gz.lianjia.com/chengjiao/GZ0002243524.html'
p1464
aS'http://gz.lianjia.com/chengjiao/GZ0002419573.html'
p1465
aS'http://gz.lianjia.com/chengjiao/GZ0001667714.html'
p1466
aS'http://gz.lianjia.com/chengjiao/GZ0001684728.html'
p1467
aS'http://gz.lianjia.com/chengjiao/GZ0001619868.html'
p1468
aS'http://gz.lianjia.com/chengjiao/GZ0002094947.html'
p1469
aS'http://gz.lianjia.com/chengjiao/GZ0001578838.html'
p1470
aS'http://gz.lianjia.com/chengjiao/GZ0002350651.html'
p1471
aS'http://gz.lianjia.com/chengjiao/GZ0001345146.html'
p1472
aS'http://gz.lianjia.com/chengjiao/GZ0001789640.html'
p1473
aS'http://gz.lianjia.com/chengjiao/GZ0002580881.html'
p1474
aS'http://gz.lianjia.com/chengjiao/GZ0002427277.html'
p1475
aS'http://gz.lianjia.com/chengjiao/GZ0001869967.html'
p1476
aS'http://gz.lianjia.com/chengjiao/GZ0001272650.html'
p1477
aS'http://gz.lianjia.com/chengjiao/GZ0002271271.html'
p1478
aS'http://gz.lianjia.com/chengjiao/GZ0002390764.html'
p1479
aS'http://gz.lianjia.com/chengjiao/GZ0002324186.html'
p1480
aS'http://gz.lianjia.com/chengjiao/GZ0002192745.html'
p1481
aS'http://gz.lianjia.com/chengjiao/GZ0001962909.html'
p1482
aS'http://gz.lianjia.com/chengjiao/GZ0002566495.html'
p1483
aS'http://gz.lianjia.com/chengjiao/GZ0001947612.html'
p1484
aS'http://gz.lianjia.com/chengjiao/GZ0002532162.html'
p1485
aS'http://gz.lianjia.com/chengjiao/GZ0001554535.html'
p1486
aS'http://gz.lianjia.com/chengjiao/GZ0001627170.html'
p1487
aS'http://gz.lianjia.com/chengjiao/GZ0001697621.html'
p1488
aS'http://gz.lianjia.com/chengjiao/GZ0002438078.html'
p1489
aS'http://gz.lianjia.com/chengjiao/GZ0001228736.html'
p1490
aS'http://gz.lianjia.com/chengjiao/GZ0001435533.html'
p1491
aS'http://gz.lianjia.com/chengjiao/GZ0001344047.html'
p1492
aS'http://gz.lianjia.com/chengjiao/GZ0002201384.html'
p1493
aS'http://gz.lianjia.com/chengjiao/GZ0002106723.html'
p1494
aS'http://gz.lianjia.com/chengjiao/GZ0001239594.html'
p1495
aS'http://gz.lianjia.com/chengjiao/GZ0001996037.html'
p1496
aS'http://gz.lianjia.com/chengjiao/GZ0001798729.html'
p1497
aS'http://gz.lianjia.com/chengjiao/GZ0002202527.html'
p1498
aS'http://gz.lianjia.com/chengjiao/GZ0002527248.html'
p1499
aS'http://gz.lianjia.com/chengjiao/GZ0002167225.html'
p1500
aS'http://gz.lianjia.com/chengjiao/GZ0001614198.html'
p1501
aS'http://gz.lianjia.com/chengjiao/GZ0001590040.html'
p1502
aS'http://gz.lianjia.com/chengjiao/GZ0001574098.html'
p1503
aS'http://gz.lianjia.com/chengjiao/GZ0002414498.html'
p1504
aS'http://gz.lianjia.com/chengjiao/GZ0002288643.html'
p1505
aS'http://gz.lianjia.com/chengjiao/GZ0002556888.html'
p1506
aS'http://gz.lianjia.com/chengjiao/GZ0001444406.html'
p1507
aS'http://gz.lianjia.com/chengjiao/GZ0002125782.html'
p1508
aS'http://gz.lianjia.com/chengjiao/GZ0002525878.html'
p1509
aS'http://gz.lianjia.com/chengjiao/GZ0001916455.html'
p1510
aS'http://gz.lianjia.com/chengjiao/GZ0002184893.html'
p1511
aS'http://gz.lianjia.com/chengjiao/GZ0001995954.html'
p1512
aS'http://gz.lianjia.com/chengjiao/GZ0001355584.html'
p1513
aS'http://gz.lianjia.com/chengjiao/GZ0001818135.html'
p1514
aS'http://gz.lianjia.com/chengjiao/GZ0002559276.html'
p1515
aS'http://gz.lianjia.com/chengjiao/GZ0001738984.html'
p1516
aS'http://gz.lianjia.com/chengjiao/GZ0001274887.html'
p1517
aS'http://gz.lianjia.com/chengjiao/GZ0001229264.html'
p1518
aS'http://gz.lianjia.com/chengjiao/GZ0002271162.html'
p1519
aS'http://gz.lianjia.com/chengjiao/GZ0002178417.html'
p1520
aS'http://gz.lianjia.com/chengjiao/GZ0001702702.html'
p1521
aS'http://gz.lianjia.com/chengjiao/GZ0002231636.html'
p1522
aS'http://gz.lianjia.com/chengjiao/GZ0001683448.html'
p1523
aS'http://gz.lianjia.com/chengjiao/GZ0002169062.html'
p1524
aS'http://gz.lianjia.com/chengjiao/GZ0001937799.html'
p1525
aS'http://gz.lianjia.com/chengjiao/GZ0002094699.html'
p1526
aS'http://gz.lianjia.com/chengjiao/GZ0002227285.html'
p1527
aS'http://gz.lianjia.com/chengjiao/GZ0002279231.html'
p1528
aS'http://gz.lianjia.com/chengjiao/GZ0001551502.html'
p1529
aS'http://gz.lianjia.com/chengjiao/GZ0001974646.html'
p1530
aS'http://gz.lianjia.com/chengjiao/GZ0001918727.html'
p1531
aS'http://gz.lianjia.com/chengjiao/GZ0001722569.html'
p1532
aS'http://gz.lianjia.com/chengjiao/GZ0001576371.html'
p1533
aS'http://gz.lianjia.com/chengjiao/GZ0001656135.html'
p1534
aS'http://gz.lianjia.com/chengjiao/GZ0002169212.html'
p1535
aS'http://gz.lianjia.com/chengjiao/GZ0001771818.html'
p1536
aS'http://gz.lianjia.com/chengjiao/GZ0001279229.html'
p1537
aS'http://gz.lianjia.com/chengjiao/GZ0002131227.html'
p1538
aS'http://gz.lianjia.com/chengjiao/GZ0001279314.html'
p1539
aS'http://gz.lianjia.com/chengjiao/GZ0001241089.html'
p1540
aS'http://gz.lianjia.com/chengjiao/GZ0001873306.html'
p1541
aS'http://gz.lianjia.com/chengjiao/GZ0002199440.html'
p1542
aS'http://gz.lianjia.com/chengjiao/GZ0002301827.html'
p1543
aS'http://gz.lianjia.com/chengjiao/GZ0001625256.html'
p1544
aS'http://gz.lianjia.com/chengjiao/GZ0001619837.html'
p1545
aS'http://gz.lianjia.com/chengjiao/GZ0002279974.html'
p1546
aS'http://gz.lianjia.com/chengjiao/GZ0001692885.html'
p1547
aS'http://gz.lianjia.com/chengjiao/GZ0001990614.html'
p1548
aS'http://gz.lianjia.com/chengjiao/GZ0001381545.html'
p1549
aS'http://gz.lianjia.com/chengjiao/GZ0001287649.html'
p1550
aS'http://gz.lianjia.com/chengjiao/GZ0001466949.html'
p1551
aS'http://gz.lianjia.com/chengjiao/GZ0002256654.html'
p1552
aS'http://gz.lianjia.com/chengjiao/GZ0002123368.html'
p1553
aS'http://gz.lianjia.com/chengjiao/GZ0001633596.html'
p1554
aS'http://gz.lianjia.com/chengjiao/GZ0001228957.html'
p1555
aS'http://gz.lianjia.com/chengjiao/GZ0002198544.html'
p1556
aS'http://gz.lianjia.com/chengjiao/GZ0002246020.html'
p1557
aS'http://gz.lianjia.com/chengjiao/GZ0002324778.html'
p1558
aS'http://gz.lianjia.com/chengjiao/GZ0001369481.html'
p1559
aS'http://gz.lianjia.com/chengjiao/GZ0002235731.html'
p1560
aS'http://gz.lianjia.com/chengjiao/GZ0001705057.html'
p1561
aS'http://gz.lianjia.com/chengjiao/GZ0001812738.html'
p1562
aS'http://gz.lianjia.com/chengjiao/GZ0002451131.html'
p1563
aS'http://gz.lianjia.com/chengjiao/GZ0002450888.html'
p1564
aS'http://gz.lianjia.com/chengjiao/GZ0002430902.html'
p1565
aS'http://gz.lianjia.com/chengjiao/GZ0002457774.html'
p1566
aS'http://gz.lianjia.com/chengjiao/GZ0002288856.html'
p1567
aS'http://gz.lianjia.com/chengjiao/GZ0001488342.html'
p1568
aS'http://gz.lianjia.com/chengjiao/GZ0002527156.html'
p1569
aS'http://gz.lianjia.com/chengjiao/GZ0001793104.html'
p1570
aS'http://gz.lianjia.com/chengjiao/GZ0002270433.html'
p1571
aS'http://gz.lianjia.com/chengjiao/GZ0001946394.html'
p1572
aS'http://gz.lianjia.com/chengjiao/GZ0002567063.html'
p1573
aS'http://gz.lianjia.com/chengjiao/GZ0001856431.html'
p1574
aS'http://gz.lianjia.com/chengjiao/GZ0002258291.html'
p1575
aS'http://gz.lianjia.com/chengjiao/GZ0002193042.html'
p1576
aS'http://gz.lianjia.com/chengjiao/GZ0002395648.html'
p1577
aS'http://gz.lianjia.com/chengjiao/GZ0002225919.html'
p1578
aS'http://gz.lianjia.com/chengjiao/GZ0001636067.html'
p1579
aS'http://gz.lianjia.com/chengjiao/GZ0001566296.html'
p1580
aS'http://gz.lianjia.com/chengjiao/GZ0002278765.html'
p1581
aS'http://gz.lianjia.com/chengjiao/GZ0002225311.html'
p1582
aS'http://gz.lianjia.com/chengjiao/GZ0001654484.html'
p1583
aS'http://gz.lianjia.com/chengjiao/GZ0001689825.html'
p1584
aS'http://gz.lianjia.com/chengjiao/GZ0002254680.html'
p1585
aS'http://gz.lianjia.com/chengjiao/GZ0002321757.html'
p1586
aS'http://gz.lianjia.com/chengjiao/GZ0001867510.html'
p1587
aS'http://gz.lianjia.com/chengjiao/GZ0001792242.html'
p1588
aS'http://gz.lianjia.com/chengjiao/GZ0001636978.html'
p1589
aS'http://gz.lianjia.com/chengjiao/GZ0002165427.html'
p1590
aS'http://gz.lianjia.com/chengjiao/GZ0002169908.html'
p1591
aS'http://gz.lianjia.com/chengjiao/GZ0001229659.html'
p1592
aS'http://gz.lianjia.com/chengjiao/GZ0001812645.html'
p1593
aS'http://gz.lianjia.com/chengjiao/GZ0002244886.html'
p1594
aS'http://gz.lianjia.com/chengjiao/GZ0002284713.html'
p1595
aS'http://gz.lianjia.com/chengjiao/GZ0001779287.html'
p1596
aS'http://gz.lianjia.com/chengjiao/GZ0001861517.html'
p1597
aS'http://gz.lianjia.com/chengjiao/GZ0002323557.html'
p1598
aS'http://gz.lianjia.com/chengjiao/GZ0002234750.html'
p1599
aS'http://gz.lianjia.com/chengjiao/GZ0001875793.html'
p1600
aS'http://gz.lianjia.com/chengjiao/GZ0001878821.html'
p1601
aS'http://gz.lianjia.com/chengjiao/GZ0002241239.html'
p1602
aS'http://gz.lianjia.com/chengjiao/GZ0001240197.html'
p1603
aS'http://gz.lianjia.com/chengjiao/GZ0001735072.html'
p1604
aS'http://gz.lianjia.com/chengjiao/GZ0001613365.html'
p1605
aS'http://gz.lianjia.com/chengjiao/GZ0001705584.html'
p1606
aS'http://gz.lianjia.com/chengjiao/GZ0001769814.html'
p1607
aS'http://gz.lianjia.com/chengjiao/GZ0001332113.html'
p1608
aS'http://gz.lianjia.com/chengjiao/GZ0002200151.html'
p1609
aS'http://gz.lianjia.com/chengjiao/GZ0002123199.html'
p1610
aS'http://gz.lianjia.com/chengjiao/GZ0002262085.html'
p1611
aS'http://gz.lianjia.com/chengjiao/GZ0001508600.html'
p1612
aS'http://gz.lianjia.com/chengjiao/GZ0001878953.html'
p1613
aS'http://gz.lianjia.com/chengjiao/GZ0001344991.html'
p1614
aS'http://gz.lianjia.com/chengjiao/GZ0002267877.html'
p1615
aS'http://gz.lianjia.com/chengjiao/GZ0001227776.html'
p1616
aS'http://gz.lianjia.com/chengjiao/GZ0001229123.html'
p1617
aS'http://gz.lianjia.com/chengjiao/GZ0002546754.html'
p1618
aS'http://gz.lianjia.com/chengjiao/GZ0002549814.html'
p1619
aS'http://gz.lianjia.com/chengjiao/GZ0002332558.html'
p1620
aS'http://gz.lianjia.com/chengjiao/GZ0001392335.html'
p1621
aS'http://gz.lianjia.com/chengjiao/GZ0002172492.html'
p1622
aS'http://gz.lianjia.com/chengjiao/GZ0001661861.html'
p1623
aS'http://gz.lianjia.com/chengjiao/GZ0002303381.html'
p1624
aS'http://gz.lianjia.com/chengjiao/GZ0001832579.html'
p1625
aS'http://gz.lianjia.com/chengjiao/GZ0002152799.html'
p1626
aS'http://gz.lianjia.com/chengjiao/GZ0002336614.html'
p1627
aS'http://gz.lianjia.com/chengjiao/GZ0002264169.html'
p1628
aS'http://gz.lianjia.com/chengjiao/GZ0002041790.html'
p1629
aS'http://gz.lianjia.com/chengjiao/GZ0001383001.html'
p1630
aS'http://gz.lianjia.com/chengjiao/GZ0001254766.html'
p1631
aS'http://gz.lianjia.com/chengjiao/GZ0001777584.html'
p1632
aS'http://gz.lianjia.com/chengjiao/GZ0002583893.html'
p1633
aS'http://gz.lianjia.com/chengjiao/GZ0002402048.html'
p1634
aS'http://gz.lianjia.com/chengjiao/GZ0002159204.html'
p1635
aS'http://gz.lianjia.com/chengjiao/GZ0002077726.html'
p1636
aS'http://gz.lianjia.com/chengjiao/GZ0001772246.html'
p1637
aS'http://gz.lianjia.com/chengjiao/GZ0002308095.html'
p1638
aS'http://gz.lianjia.com/chengjiao/GZ0002443689.html'
p1639
aS'http://gz.lianjia.com/chengjiao/GZ0001589121.html'
p1640
aS'http://gz.lianjia.com/chengjiao/GZ0001878248.html'
p1641
aS'http://gz.lianjia.com/chengjiao/GZ0002249277.html'
p1642
aS'http://gz.lianjia.com/chengjiao/GZ0002172819.html'
p1643
aS'http://gz.lianjia.com/chengjiao/GZ0001774682.html'
p1644
aS'http://gz.lianjia.com/chengjiao/GZ0002166042.html'
p1645
aS'http://gz.lianjia.com/chengjiao/GZ0001855305.html'
p1646
aS'http://gz.lianjia.com/chengjiao/GZ0002176064.html'
p1647
aS'http://gz.lianjia.com/chengjiao/GZ0002184955.html'
p1648
aS'http://gz.lianjia.com/chengjiao/GZ0001572066.html'
p1649
aS'http://gz.lianjia.com/chengjiao/GZ0001991691.html'
p1650
aS'http://gz.lianjia.com/chengjiao/GZ0002327352.html'
p1651
aS'http://gz.lianjia.com/chengjiao/GZ0002190487.html'
p1652
aS'http://gz.lianjia.com/chengjiao/GZ0002274414.html'
p1653
aS'http://gz.lianjia.com/chengjiao/GZ0001279015.html'
p1654
aS'http://gz.lianjia.com/chengjiao/GZ0001574024.html'
p1655
aS'http://gz.lianjia.com/chengjiao/GZ0001619267.html'
p1656
aS'http://gz.lianjia.com/chengjiao/GZ0001250320.html'
p1657
aS'http://gz.lianjia.com/chengjiao/GZ0002245322.html'
p1658
aS'http://gz.lianjia.com/chengjiao/GZ0002174603.html'
p1659
aS'http://gz.lianjia.com/chengjiao/GZ0002323068.html'
p1660
aS'http://gz.lianjia.com/chengjiao/GZ0001625166.html'
p1661
aS'http://gz.lianjia.com/chengjiao/GZ0001662125.html'
p1662
aS'http://gz.lianjia.com/chengjiao/GZ0001445241.html'
p1663
aS'http://gz.lianjia.com/chengjiao/GZ0002433485.html'
p1664
aS'http://gz.lianjia.com/chengjiao/GZ0002572856.html'
p1665
aS'http://gz.lianjia.com/chengjiao/GZ0001967924.html'
p1666
aS'http://gz.lianjia.com/chengjiao/GZ0001698054.html'
p1667
aS'http://gz.lianjia.com/chengjiao/GZ0001249246.html'
p1668
aS'http://gz.lianjia.com/chengjiao/GZ0002298390.html'
p1669
aS'http://gz.lianjia.com/chengjiao/GZ0001739673.html'
p1670
aS'http://gz.lianjia.com/chengjiao/GZ0001741883.html'
p1671
aS'http://gz.lianjia.com/chengjiao/GZ0001386292.html'
p1672
aS'http://gz.lianjia.com/chengjiao/GZ0002535423.html'
p1673
aS'http://gz.lianjia.com/chengjiao/GZ0002097484.html'
p1674
aS'http://gz.lianjia.com/chengjiao/GZ0001509687.html'
p1675
aS'http://gz.lianjia.com/chengjiao/GZ0001932108.html'
p1676
aS'http://gz.lianjia.com/chengjiao/GZ0001387901.html'
p1677
aS'http://gz.lianjia.com/chengjiao/GZ0002311553.html'
p1678
aS'http://gz.lianjia.com/chengjiao/GZ0002118118.html'
p1679
aS'http://gz.lianjia.com/chengjiao/GZ0002239106.html'
p1680
aS'http://gz.lianjia.com/chengjiao/GZ0001632466.html'
p1681
aS'http://gz.lianjia.com/chengjiao/GZ0002184543.html'
p1682
aS'http://gz.lianjia.com/chengjiao/GZ0002083325.html'
p1683
aS'http://gz.lianjia.com/chengjiao/GZ0002328001.html'
p1684
aS'http://gz.lianjia.com/chengjiao/GZ0002414365.html'
p1685
aS'http://gz.lianjia.com/chengjiao/GZ0002190456.html'
p1686
aS'http://gz.lianjia.com/chengjiao/GZ0002169963.html'
p1687
aS'http://gz.lianjia.com/chengjiao/GZ0001903245.html'
p1688
aS'http://gz.lianjia.com/chengjiao/GZ0002266867.html'
p1689
aS'http://gz.lianjia.com/chengjiao/GZ0001758393.html'
p1690
aS'http://gz.lianjia.com/chengjiao/GZ0001384986.html'
p1691
aS'http://gz.lianjia.com/chengjiao/GZ0002289054.html'
p1692
aS'http://gz.lianjia.com/chengjiao/GZ0001465294.html'
p1693
aS'http://gz.lianjia.com/chengjiao/GZ0001578076.html'
p1694
aS'http://gz.lianjia.com/chengjiao/GZ0002530315.html'
p1695
aS'http://gz.lianjia.com/chengjiao/GZ0002195256.html'
p1696
aS'http://gz.lianjia.com/chengjiao/GZ0001710067.html'
p1697
aS'http://gz.lianjia.com/chengjiao/GZ0001339918.html'
p1698
aS'http://gz.lianjia.com/chengjiao/GZ0002452245.html'
p1699
aS'http://gz.lianjia.com/chengjiao/GZ0002271568.html'
p1700
aS'http://gz.lianjia.com/chengjiao/GZ0002185741.html'
p1701
aS'http://gz.lianjia.com/chengjiao/GZ0001512250.html'
p1702
aS'http://gz.lianjia.com/chengjiao/GZ0001609465.html'
p1703
aS'http://gz.lianjia.com/chengjiao/GZ0001385210.html'
p1704
aS'http://gz.lianjia.com/chengjiao/GZ0002187555.html'
p1705
aS'http://gz.lianjia.com/chengjiao/GZ0002197830.html'
p1706
aS'http://gz.lianjia.com/chengjiao/GZ0002302888.html'
p1707
aS'http://gz.lianjia.com/chengjiao/GZ0001438853.html'
p1708
aS'http://gz.lianjia.com/chengjiao/GZ0001902416.html'
p1709
aS'http://gz.lianjia.com/chengjiao/GZ0002161892.html'
p1710
aS'http://gz.lianjia.com/chengjiao/GZ0002089514.html'
p1711
aS'http://gz.lianjia.com/chengjiao/GZ0002410796.html'
p1712
aS'http://gz.lianjia.com/chengjiao/GZ0002576946.html'
p1713
aS'http://gz.lianjia.com/chengjiao/GZ0002246952.html'
p1714
aS'http://gz.lianjia.com/chengjiao/GZ0001509283.html'
p1715
aS'http://gz.lianjia.com/chengjiao/GZ0002368230.html'
p1716
aS'http://gz.lianjia.com/chengjiao/GZ0001746818.html'
p1717
aS'http://gz.lianjia.com/chengjiao/GZ0001927872.html'
p1718
aS'http://gz.lianjia.com/chengjiao/GZ0001929972.html'
p1719
aS'http://gz.lianjia.com/chengjiao/GZ0002270935.html'
p1720
aS'http://gz.lianjia.com/chengjiao/GZ0001270490.html'
p1721
aS'http://gz.lianjia.com/chengjiao/GZ0001989494.html'
p1722
aS'http://gz.lianjia.com/chengjiao/GZ0002262454.html'
p1723
aS'http://gz.lianjia.com/chengjiao/GZ0001535668.html'
p1724
aS'http://gz.lianjia.com/chengjiao/GZ0002184694.html'
p1725
aS'http://gz.lianjia.com/chengjiao/GZ0001856664.html'
p1726
aS'http://gz.lianjia.com/chengjiao/GZ0001239232.html'
p1727
aS'http://gz.lianjia.com/chengjiao/GZ0002190375.html'
p1728
aS'http://gz.lianjia.com/chengjiao/GZ0002247424.html'
p1729
aS'http://gz.lianjia.com/chengjiao/GZ0001997650.html'
p1730
aS'http://gz.lianjia.com/chengjiao/GZ0001678347.html'
p1731
aS'http://gz.lianjia.com/chengjiao/GZ0002259326.html'
p1732
aS'http://gz.lianjia.com/chengjiao/GZ0002429535.html'
p1733
aS'http://gz.lianjia.com/chengjiao/GZ0002319942.html'
p1734
aS'http://gz.lianjia.com/chengjiao/GZ0002342518.html'
p1735
aS'http://gz.lianjia.com/chengjiao/GZ0001873323.html'
p1736
aS'http://gz.lianjia.com/chengjiao/GZ0001996084.html'
p1737
aS'http://gz.lianjia.com/chengjiao/GZ0001635248.html'
p1738
aS'http://gz.lianjia.com/chengjiao/GZ0002574306.html'
p1739
aS'http://gz.lianjia.com/chengjiao/GZ0002263483.html'
p1740
aS'http://gz.lianjia.com/chengjiao/GZ0001429382.html'
p1741
aS'http://gz.lianjia.com/chengjiao/GZ0002165950.html'
p1742
aS'http://gz.lianjia.com/chengjiao/GZ0002373432.html'
p1743
aS'http://gz.lianjia.com/chengjiao/GZ0002322627.html'
p1744
aS'http://gz.lianjia.com/chengjiao/GZ0002377100.html'
p1745
aS'http://gz.lianjia.com/chengjiao/GZ0002416207.html'
p1746
aS'http://gz.lianjia.com/chengjiao/GZ0002292323.html'
p1747
aS'http://gz.lianjia.com/chengjiao/GZ0001746214.html'
p1748
aS'http://gz.lianjia.com/chengjiao/GZ0001794843.html'
p1749
aS'http://gz.lianjia.com/chengjiao/GZ0001878045.html'
p1750
aS'http://gz.lianjia.com/chengjiao/GZ0001328187.html'
p1751
aS'http://gz.lianjia.com/chengjiao/GZ0002246058.html'
p1752
aS'http://gz.lianjia.com/chengjiao/GZ0001387450.html'
p1753
aS'http://gz.lianjia.com/chengjiao/GZ0002245923.html'
p1754
aS'http://gz.lianjia.com/chengjiao/GZ0001711423.html'
p1755
aS'http://gz.lianjia.com/chengjiao/GZ0001997573.html'
p1756
aS'http://gz.lianjia.com/chengjiao/GZ0002075949.html'
p1757
aS'http://gz.lianjia.com/chengjiao/GZ0001852571.html'
p1758
aS'http://gz.lianjia.com/chengjiao/GZ0001947670.html'
p1759
aS'http://gz.lianjia.com/chengjiao/GZ0002274601.html'
p1760
aS'http://gz.lianjia.com/chengjiao/GZ0002225886.html'
p1761
aS'http://gz.lianjia.com/chengjiao/GZ0001465768.html'
p1762
aS'http://gz.lianjia.com/chengjiao/GZ0002382118.html'
p1763
aS'http://gz.lianjia.com/chengjiao/GZ0001854160.html'
p1764
aS'http://gz.lianjia.com/chengjiao/GZ0002566527.html'
p1765
aS'http://gz.lianjia.com/chengjiao/GZ0001332618.html'
p1766
aS'http://gz.lianjia.com/chengjiao/GZ0002387584.html'
p1767
aS'http://gz.lianjia.com/chengjiao/GZ0001941751.html'
p1768
aS'http://gz.lianjia.com/chengjiao/GZ0001391288.html'
p1769
aS'http://gz.lianjia.com/chengjiao/GZ0002195577.html'
p1770
aS'http://gz.lianjia.com/chengjiao/GZ0001549006.html'
p1771
aS'http://gz.lianjia.com/chengjiao/GZ0002383125.html'
p1772
aS'http://gz.lianjia.com/chengjiao/GZ0001636326.html'
p1773
aS'http://gz.lianjia.com/chengjiao/GZ0001852235.html'
p1774
aS'http://gz.lianjia.com/chengjiao/GZ0002406129.html'
p1775
aS'http://gz.lianjia.com/chengjiao/GZ0002165784.html'
p1776
aS'http://gz.lianjia.com/chengjiao/GZ0002336622.html'
p1777
aS'http://gz.lianjia.com/chengjiao/GZ0002562589.html'
p1778
aS'http://gz.lianjia.com/chengjiao/GZ0002241487.html'
p1779
aS'http://gz.lianjia.com/chengjiao/GZ0002037333.html'
p1780
aS'http://gz.lianjia.com/chengjiao/GZ0002327312.html'
p1781
aS'http://gz.lianjia.com/chengjiao/GZ0002526531.html'
p1782
aS'http://gz.lianjia.com/chengjiao/GZ0002318093.html'
p1783
aS'http://gz.lianjia.com/chengjiao/GZ0001740310.html'
p1784
aS'http://gz.lianjia.com/chengjiao/GZ0001229044.html'
p1785
aS'http://gz.lianjia.com/chengjiao/GZ0001877800.html'
p1786
aS'http://gz.lianjia.com/chengjiao/GZ0002591321.html'
p1787
aS'http://gz.lianjia.com/chengjiao/GZ0001809645.html'
p1788
aS'http://gz.lianjia.com/chengjiao/GZ0002388480.html'
p1789
aS'http://gz.lianjia.com/chengjiao/GZ0002277535.html'
p1790
aS'http://gz.lianjia.com/chengjiao/GZ0001657744.html'
p1791
aS'http://gz.lianjia.com/chengjiao/GZ0001552695.html'
p1792
aS'http://gz.lianjia.com/chengjiao/GZ0001328415.html'
p1793
aS'http://gz.lianjia.com/chengjiao/GZ0001511796.html'
p1794
aS'http://gz.lianjia.com/chengjiao/GZ0001274146.html'
p1795
aS'http://gz.lianjia.com/chengjiao/GZ0001274207.html'
p1796
aS'http://gz.lianjia.com/chengjiao/GZ0002331472.html'
p1797
aS'http://gz.lianjia.com/chengjiao/GZ0002307437.html'
p1798
aS'http://gz.lianjia.com/chengjiao/GZ0001903248.html'
p1799
aS'http://gz.lianjia.com/chengjiao/GZ0002343564.html'
p1800
aS'http://gz.lianjia.com/chengjiao/GZ0001877348.html'
p1801
aS'http://gz.lianjia.com/chengjiao/GZ0002334195.html'
p1802
aS'http://gz.lianjia.com/chengjiao/GZ0001972406.html'
p1803
aS'http://gz.lianjia.com/chengjiao/GZ0002227317.html'
p1804
aS'http://gz.lianjia.com/chengjiao/GZ0002315295.html'
p1805
aS'http://gz.lianjia.com/chengjiao/GZ0002202204.html'
p1806
aS'http://gz.lianjia.com/chengjiao/GZ0002334839.html'
p1807
aS'http://gz.lianjia.com/chengjiao/GZ0002290964.html'
p1808
aS'http://gz.lianjia.com/chengjiao/GZ0001552495.html'
p1809
aS'http://gz.lianjia.com/chengjiao/GZ0002351261.html'
p1810
aS'http://gz.lianjia.com/chengjiao/GZ0001570992.html'
p1811
aS'http://gz.lianjia.com/chengjiao/GZ0001270924.html'
p1812
aS'http://gz.lianjia.com/chengjiao/GZ0001465629.html'
p1813
aS'http://gz.lianjia.com/chengjiao/GZ0002549640.html'
p1814
aS'http://gz.lianjia.com/chengjiao/GZ0002243702.html'
p1815
aS'http://gz.lianjia.com/chengjiao/GZ0001913679.html'
p1816
aS'http://gz.lianjia.com/chengjiao/GZ0002169813.html'
p1817
aS'http://gz.lianjia.com/chengjiao/GZ0002533532.html'
p1818
aS'http://gz.lianjia.com/chengjiao/GZ0001586186.html'
p1819
aS'http://gz.lianjia.com/chengjiao/GZ0001881301.html'
p1820
aS'http://gz.lianjia.com/chengjiao/GZ0001672717.html'
p1821
aS'http://gz.lianjia.com/chengjiao/GZ0002184822.html'
p1822
aS'http://gz.lianjia.com/chengjiao/GZ0002532797.html'
p1823
aS'http://gz.lianjia.com/chengjiao/GZ0001239450.html'
p1824
aS'http://gz.lianjia.com/chengjiao/GZ0002532754.html'
p1825
aS'http://gz.lianjia.com/chengjiao/GZ0001655190.html'
p1826
aS'http://gz.lianjia.com/chengjiao/GZ0001807332.html'
p1827
aS'http://gz.lianjia.com/chengjiao/GZ0002170376.html'
p1828
aS'http://gz.lianjia.com/chengjiao/GZ0002127324.html'
p1829
aS'http://gz.lianjia.com/chengjiao/GZ0001730338.html'
p1830
aS'http://gz.lianjia.com/chengjiao/GZ0002260412.html'
p1831
aS'http://gz.lianjia.com/chengjiao/GZ0001549007.html'
p1832
aS'http://gz.lianjia.com/chengjiao/GZ0001973499.html'
p1833
aS'http://gz.lianjia.com/chengjiao/GZ0002535378.html'
p1834
aS'http://gz.lianjia.com/chengjiao/GZ0001548471.html'
p1835
aS'http://gz.lianjia.com/chengjiao/GZ0002541855.html'
p1836
aS'http://gz.lianjia.com/chengjiao/GZ0001996727.html'
p1837
aS'http://gz.lianjia.com/chengjiao/GZ0001855229.html'
p1838
aS'http://gz.lianjia.com/chengjiao/GZ0001747797.html'
p1839
aS'http://gz.lianjia.com/chengjiao/GZ0002551981.html'
p1840
aS'http://gz.lianjia.com/chengjiao/GZ0002292099.html'
p1841
aS'http://gz.lianjia.com/chengjiao/GZ0001241797.html'
p1842
aS'http://gz.lianjia.com/chengjiao/GZ0002038746.html'
p1843
aS'http://gz.lianjia.com/chengjiao/GZ0002201087.html'
p1844
aS'http://gz.lianjia.com/chengjiao/GZ0002297175.html'
p1845
aS'http://gz.lianjia.com/chengjiao/GZ0002001714.html'
p1846
aS'http://gz.lianjia.com/chengjiao/GZ0001619296.html'
p1847
aS'http://gz.lianjia.com/chengjiao/GZ0001729986.html'
p1848
aS'http://gz.lianjia.com/chengjiao/GZ0001632227.html'
p1849
aS'http://gz.lianjia.com/chengjiao/GZ0002192248.html'
p1850
aS'http://gz.lianjia.com/chengjiao/GZ0001830007.html'
p1851
aS'http://gz.lianjia.com/chengjiao/GZ0001576286.html'
p1852
aS'http://gz.lianjia.com/chengjiao/GZ0002322393.html'
p1853
aS'http://gz.lianjia.com/chengjiao/GZ0001229142.html'
p1854
aS'http://gz.lianjia.com/chengjiao/GZ0001290314.html'
p1855
aS'http://gz.lianjia.com/chengjiao/GZ0001705721.html'
p1856
aS'http://gz.lianjia.com/chengjiao/GZ0002068470.html'
p1857
aS'http://gz.lianjia.com/chengjiao/GZ0002197968.html'
p1858
aS'http://gz.lianjia.com/chengjiao/GZ0001693300.html'
p1859
aS'http://gz.lianjia.com/chengjiao/GZ0002323625.html'
p1860
aS'http://gz.lianjia.com/chengjiao/GZ0001576336.html'
p1861
aS'http://gz.lianjia.com/chengjiao/GZ0001872804.html'
p1862
aS'http://gz.lianjia.com/chengjiao/GZ0002093555.html'
p1863
aS'http://gz.lianjia.com/chengjiao/GZ0002246938.html'
p1864
aS'http://gz.lianjia.com/chengjiao/GZ0002298774.html'
p1865
aS'http://gz.lianjia.com/chengjiao/GZ0001772153.html'
p1866
aS'http://gz.lianjia.com/chengjiao/GZ0002162822.html'
p1867
aS'http://gz.lianjia.com/chengjiao/GZ0002255556.html'
p1868
aS'http://gz.lianjia.com/chengjiao/GZ0001698726.html'
p1869
aS'http://gz.lianjia.com/chengjiao/GZ0001612593.html'
p1870
aS'http://gz.lianjia.com/chengjiao/GZ0002296589.html'
p1871
aS'http://gz.lianjia.com/chengjiao/GZ0001728524.html'
p1872
aS'http://gz.lianjia.com/chengjiao/GZ0002256988.html'
p1873
aS'http://gz.lianjia.com/chengjiao/GZ0001892119.html'
p1874
aS'http://gz.lianjia.com/chengjiao/GZ0002548011.html'
p1875
aS'http://gz.lianjia.com/chengjiao/GZ0001736354.html'
p1876
aS'http://gz.lianjia.com/chengjiao/GZ0002397885.html'
p1877
aS'http://gz.lianjia.com/chengjiao/GZ0001618500.html'
p1878
aS'http://gz.lianjia.com/chengjiao/GZ0001489031.html'
p1879
aS'http://gz.lianjia.com/chengjiao/GZ0002195442.html'
p1880
aS'http://gz.lianjia.com/chengjiao/GZ0002249049.html'
p1881
aS'http://gz.lianjia.com/chengjiao/GZ0002233432.html'
p1882
aS'http://gz.lianjia.com/chengjiao/GZ0001797540.html'
p1883
aS'http://gz.lianjia.com/chengjiao/GZ0001717565.html'
p1884
aS'http://gz.lianjia.com/chengjiao/GZ0001910478.html'
p1885
aS'http://gz.lianjia.com/chengjiao/GZ0002159742.html'
p1886
aS'http://gz.lianjia.com/chengjiao/GZ0002435172.html'
p1887
aS'http://gz.lianjia.com/chengjiao/GZ0002573066.html'
p1888
aS'http://gz.lianjia.com/chengjiao/GZ0002255256.html'
p1889
aS'http://gz.lianjia.com/chengjiao/GZ0001552491.html'
p1890
aS'http://gz.lianjia.com/chengjiao/GZ0001988762.html'
p1891
aS'http://gz.lianjia.com/chengjiao/GZ0001750539.html'
p1892
aS'http://gz.lianjia.com/chengjiao/GZ0002278678.html'
p1893
aS'http://gz.lianjia.com/chengjiao/GZ0001510603.html'
p1894
aS'http://gz.lianjia.com/chengjiao/GZ0002186313.html'
p1895
aS'http://gz.lianjia.com/chengjiao/GZ0002327355.html'
p1896
aS'http://gz.lianjia.com/chengjiao/GZ0002243292.html'
p1897
aS'http://gz.lianjia.com/chengjiao/GZ0002343391.html'
p1898
aS'http://gz.lianjia.com/chengjiao/GZ0001703606.html'
p1899
aS'http://gz.lianjia.com/chengjiao/GZ0002162592.html'
p1900
aS'http://gz.lianjia.com/chengjiao/GZ0001232671.html'
p1901
aS'http://gz.lianjia.com/chengjiao/GZ0002128141.html'
p1902
aS'http://gz.lianjia.com/chengjiao/GZ0001281594.html'
p1903
aS'http://gz.lianjia.com/chengjiao/GZ0002325374.html'
p1904
aS'http://gz.lianjia.com/chengjiao/GZ0002185040.html'
p1905
aS'http://gz.lianjia.com/chengjiao/GZ0001665104.html'
p1906
aS'http://gz.lianjia.com/chengjiao/GZ0001722172.html'
p1907
aS'http://gz.lianjia.com/chengjiao/GZ0002325805.html'
p1908
aS'http://gz.lianjia.com/chengjiao/GZ0001556411.html'
p1909
aS'http://gz.lianjia.com/chengjiao/GZ0001721080.html'
p1910
aS'http://gz.lianjia.com/chengjiao/GZ0001740683.html'
p1911
aS'http://gz.lianjia.com/chengjiao/GZ0002186702.html'
p1912
aS'http://gz.lianjia.com/chengjiao/GZ0001636701.html'
p1913
aS'http://gz.lianjia.com/chengjiao/GZ0001763200.html'
p1914
aS'http://gz.lianjia.com/chengjiao/GZ0001629556.html'
p1915
aS'http://gz.lianjia.com/chengjiao/GZ0001975370.html'
p1916
aS'http://gz.lianjia.com/chengjiao/GZ0002285721.html'
p1917
aS'http://gz.lianjia.com/chengjiao/GZ0001229510.html'
p1918
aS'http://gz.lianjia.com/chengjiao/GZ0001454396.html'
p1919
aS'http://gz.lianjia.com/chengjiao/GZ0001584346.html'
p1920
aS'http://gz.lianjia.com/chengjiao/GZ0002037219.html'
p1921
aS'http://gz.lianjia.com/chengjiao/GZ0001675969.html'
p1922
aS'http://gz.lianjia.com/chengjiao/GZ0001228747.html'
p1923
aS'http://gz.lianjia.com/chengjiao/GZ0001281167.html'
p1924
aS'http://gz.lianjia.com/chengjiao/GZ0001855128.html'
p1925
aS'http://gz.lianjia.com/chengjiao/GZ0002257214.html'
p1926
aS'http://gz.lianjia.com/chengjiao/GZ0001638768.html'
p1927
aS'http://gz.lianjia.com/chengjiao/GZ0002330103.html'
p1928
aS'http://gz.lianjia.com/chengjiao/GZ0002258527.html'
p1929
aS'http://gz.lianjia.com/chengjiao/GZ0002185903.html'
p1930
aS'http://gz.lianjia.com/chengjiao/GZ0001612522.html'
p1931
aS'http://gz.lianjia.com/chengjiao/GZ0002001617.html'
p1932
aS'http://gz.lianjia.com/chengjiao/GZ0002186299.html'
p1933
aS'http://gz.lianjia.com/chengjiao/GZ0001443948.html'
p1934
aS'http://gz.lianjia.com/chengjiao/GZ0002004079.html'
p1935
aS'http://gz.lianjia.com/chengjiao/GZ0001720733.html'
p1936
aS'http://gz.lianjia.com/chengjiao/GZ0002300841.html'
p1937
aS'http://gz.lianjia.com/chengjiao/GZ0002276097.html'
p1938
aS'http://gz.lianjia.com/chengjiao/GZ0002419925.html'
p1939
aS'http://gz.lianjia.com/chengjiao/GZ0001998928.html'
p1940
aS'http://gz.lianjia.com/chengjiao/GZ0001746820.html'
p1941
aS'http://gz.lianjia.com/chengjiao/GZ0002231792.html'
p1942
aS'http://gz.lianjia.com/chengjiao/GZ0002192178.html'
p1943
aS'http://gz.lianjia.com/chengjiao/GZ0001347417.html'
p1944
aS'http://gz.lianjia.com/chengjiao/GZ0001512568.html'
p1945
aS'http://gz.lianjia.com/chengjiao/GZ0002274027.html'
p1946
aS'http://gz.lianjia.com/chengjiao/GZ0001854131.html'
p1947
aS'http://gz.lianjia.com/chengjiao/GZ0001374847.html'
p1948
aS'http://gz.lianjia.com/chengjiao/GZ0001722498.html'
p1949
aS'http://gz.lianjia.com/chengjiao/GZ0001944428.html'
p1950
aS'http://gz.lianjia.com/chengjiao/GZ0001574124.html'
p1951
aS'http://gz.lianjia.com/chengjiao/GZ0001472779.html'
p1952
aS'http://gz.lianjia.com/chengjiao/GZ0002302411.html'
p1953
aS'http://gz.lianjia.com/chengjiao/GZ0001996560.html'
p1954
aS'http://gz.lianjia.com/chengjiao/GZ0002243689.html'
p1955
aS'http://gz.lianjia.com/chengjiao/GZ0002201509.html'
p1956
aS'http://gz.lianjia.com/chengjiao/GZ0001550988.html'
p1957
aS'http://gz.lianjia.com/chengjiao/GZ0002281290.html'
p1958
aS'http://gz.lianjia.com/chengjiao/GZ0001998127.html'
p1959
aS'http://gz.lianjia.com/chengjiao/GZ0002403209.html'
p1960
aS'http://gz.lianjia.com/chengjiao/GZ0002170015.html'
p1961
aS'http://gz.lianjia.com/chengjiao/GZ0001310017.html'
p1962
aS'http://gz.lianjia.com/chengjiao/GZ0001396654.html'
p1963
aS'http://gz.lianjia.com/chengjiao/GZ0001941528.html'
p1964
aS'http://gz.lianjia.com/chengjiao/GZ0002268578.html'
p1965
aS'http://gz.lianjia.com/chengjiao/GZ0001287991.html'
p1966
aS'http://gz.lianjia.com/chengjiao/GZ0001564424.html'
p1967
aS'http://gz.lianjia.com/chengjiao/GZ0001674616.html'
p1968
aS'http://gz.lianjia.com/chengjiao/GZ0002305626.html'
p1969
aS'http://gz.lianjia.com/chengjiao/GZ0002186316.html'
p1970
aS'http://gz.lianjia.com/chengjiao/GZ0001533174.html'
p1971
aS'http://gz.lianjia.com/chengjiao/GZ0001498235.html'
p1972
aS'http://gz.lianjia.com/chengjiao/GZ0002403096.html'
p1973
aS'http://gz.lianjia.com/chengjiao/GZ0002317727.html'
p1974
aS'http://gz.lianjia.com/chengjiao/GZ0001560796.html'
p1975
aS'http://gz.lianjia.com/chengjiao/GZ0001974068.html'
p1976
aS'http://gz.lianjia.com/chengjiao/GZ0002330692.html'
p1977
aS'http://gz.lianjia.com/chengjiao/GZ0002327932.html'
p1978
aS'http://gz.lianjia.com/chengjiao/GZ0001877743.html'
p1979
aS'http://gz.lianjia.com/chengjiao/GZ0001443697.html'
p1980
aS'http://gz.lianjia.com/chengjiao/GZ0002166315.html'
p1981
aS'http://gz.lianjia.com/chengjiao/GZ0001944775.html'
p1982
aS'http://gz.lianjia.com/chengjiao/GZ0001752839.html'
p1983
aS'http://gz.lianjia.com/chengjiao/GZ0002105484.html'
p1984
aS'http://gz.lianjia.com/chengjiao/GZ0002544272.html'
p1985
aS'http://gz.lianjia.com/chengjiao/GZ0002343829.html'
p1986
aS'http://gz.lianjia.com/chengjiao/GZ0002194634.html'
p1987
aS'http://gz.lianjia.com/chengjiao/GZ0001834235.html'
p1988
aS'http://gz.lianjia.com/chengjiao/GZ0001343985.html'
p1989
aS'http://gz.lianjia.com/chengjiao/GZ0002065733.html'
p1990
aS'http://gz.lianjia.com/chengjiao/GZ0001730951.html'
p1991
aS'http://gz.lianjia.com/chengjiao/GZ0001260898.html'
p1992
aS'http://gz.lianjia.com/chengjiao/GZ0002308783.html'
p1993
aS'http://gz.lianjia.com/chengjiao/GZ0001634361.html'
p1994
aS'http://gz.lianjia.com/chengjiao/GZ0001228969.html'
p1995
aS'http://gz.lianjia.com/chengjiao/GZ0002273018.html'
p1996
aS'http://gz.lianjia.com/chengjiao/GZ0001680042.html'
p1997
aS'http://gz.lianjia.com/chengjiao/GZ0001586311.html'
p1998
aS'http://gz.lianjia.com/chengjiao/GZ0002290369.html'
p1999
aS'http://gz.lianjia.com/chengjiao/GZ0002166947.html'
p2000
aS'http://gz.lianjia.com/chengjiao/GZ0001726765.html'
p2001
aS'http://gz.lianjia.com/chengjiao/GZ0002250039.html'
p2002
aS'http://gz.lianjia.com/chengjiao/GZ0002140218.html'
p2003
aS'http://gz.lianjia.com/chengjiao/GZ0001229840.html'
p2004
aS'http://gz.lianjia.com/chengjiao/GZ0002238826.html'
p2005
aS'http://gz.lianjia.com/chengjiao/GZ0001779660.html'
p2006
aS'http://gz.lianjia.com/chengjiao/GZ0001264286.html'
p2007
aS'http://gz.lianjia.com/chengjiao/GZ0001346359.html'
p2008
aS'http://gz.lianjia.com/chengjiao/GZ0002201043.html'
p2009
aS'http://gz.lianjia.com/chengjiao/GZ0002088209.html'
p2010
aS'http://gz.lianjia.com/chengjiao/GZ0002171111.html'
p2011
aS'http://gz.lianjia.com/chengjiao/GZ0002318097.html'
p2012
aS'http://gz.lianjia.com/chengjiao/GZ0001579780.html'
p2013
aS'http://gz.lianjia.com/chengjiao/GZ0002303039.html'
p2014
aS'http://gz.lianjia.com/chengjiao/GZ0001774556.html'
p2015
aS'http://gz.lianjia.com/chengjiao/GZ0001697001.html'
p2016
aS'http://gz.lianjia.com/chengjiao/GZ0001654051.html'
p2017
aS'http://gz.lianjia.com/chengjiao/GZ0002258404.html'
p2018
aS'http://gz.lianjia.com/chengjiao/GZ0002314088.html'
p2019
aS'http://gz.lianjia.com/chengjiao/GZ0001921805.html'
p2020
aS'http://gz.lianjia.com/chengjiao/GZ0002006441.html'
p2021
aS'http://gz.lianjia.com/chengjiao/GZ0002167303.html'
p2022
aS'http://gz.lianjia.com/chengjiao/GZ0002162716.html'
p2023
aS'http://gz.lianjia.com/chengjiao/GZ0001270867.html'
p2024
aS'http://gz.lianjia.com/chengjiao/GZ0002560585.html'
p2025
aS'http://gz.lianjia.com/chengjiao/GZ0001727225.html'
p2026
aS'http://gz.lianjia.com/chengjiao/GZ0001258631.html'
p2027
aS'http://gz.lianjia.com/chengjiao/GZ0001342000.html'
p2028
aS'http://gz.lianjia.com/chengjiao/GZ0001935698.html'
p2029
aS'http://gz.lianjia.com/chengjiao/GZ0002005620.html'
p2030
aS'http://gz.lianjia.com/chengjiao/GZ0002553106.html'
p2031
aS'http://gz.lianjia.com/chengjiao/GZ0002291265.html'
p2032
aS'http://gz.lianjia.com/chengjiao/GZ0001807497.html'
p2033
aS'http://gz.lianjia.com/chengjiao/GZ0001609271.html'
p2034
aS'http://gz.lianjia.com/chengjiao/GZ0002445417.html'
p2035
aS'http://gz.lianjia.com/chengjiao/GZ0002183479.html'
p2036
aS'http://gz.lianjia.com/chengjiao/GZ0002181711.html'
p2037
aS'http://gz.lianjia.com/chengjiao/GZ0002320319.html'
p2038
aS'http://gz.lianjia.com/chengjiao/GZ0001908043.html'
p2039
aS'http://gz.lianjia.com/chengjiao/GZ0001620976.html'
p2040
aS'http://gz.lianjia.com/chengjiao/GZ0001654511.html'
p2041
aS'http://gz.lianjia.com/chengjiao/GZ0001788675.html'
p2042
aS'http://gz.lianjia.com/chengjiao/GZ0002455320.html'
p2043
aS'http://gz.lianjia.com/chengjiao/GZ0001803987.html'
p2044
aS'http://gz.lianjia.com/chengjiao/GZ0001392291.html'
p2045
aS'http://gz.lianjia.com/chengjiao/GZ0001990165.html'
p2046
aS'http://gz.lianjia.com/chengjiao/GZ0001268094.html'
p2047
aS'http://gz.lianjia.com/chengjiao/GZ0002102059.html'
p2048
aS'http://gz.lianjia.com/chengjiao/GZ0002225425.html'
p2049
aS'http://gz.lianjia.com/chengjiao/GZ0002538605.html'
p2050
aS'http://gz.lianjia.com/chengjiao/GZ0002257745.html'
p2051
aS'http://gz.lianjia.com/chengjiao/GZ0001556254.html'
p2052
aS'http://gz.lianjia.com/chengjiao/GZ0001966249.html'
p2053
aS'http://gz.lianjia.com/chengjiao/GZ0001255670.html'
p2054
aS'http://gz.lianjia.com/chengjiao/GZ0002452383.html'
p2055
aS'http://gz.lianjia.com/chengjiao/GZ0001580071.html'
p2056
aS'http://gz.lianjia.com/chengjiao/GZ0002157244.html'
p2057
aS'http://gz.lianjia.com/chengjiao/GZ0001946220.html'
p2058
aS'http://gz.lianjia.com/chengjiao/GZ0001930089.html'
p2059
aS'http://gz.lianjia.com/chengjiao/GZ0001457656.html'
p2060
aS'http://gz.lianjia.com/chengjiao/GZ0002275654.html'
p2061
aS'http://gz.lianjia.com/chengjiao/GZ0001861594.html'
p2062
aS'http://gz.lianjia.com/chengjiao/GZ0001745954.html'
p2063
aS'http://gz.lianjia.com/chengjiao/GZ0001805071.html'
p2064
aS'http://gz.lianjia.com/chengjiao/GZ0001554147.html'
p2065
aS'http://gz.lianjia.com/chengjiao/GZ0002279644.html'
p2066
aS'http://gz.lianjia.com/chengjiao/GZ0001562596.html'
p2067
aS'http://gz.lianjia.com/chengjiao/GZ0002184871.html'
p2068
aS'http://gz.lianjia.com/chengjiao/GZ0001665800.html'
p2069
aS'http://gz.lianjia.com/chengjiao/GZ0001724070.html'
p2070
aS'http://gz.lianjia.com/chengjiao/GZ0001626344.html'
p2071
aS'http://gz.lianjia.com/chengjiao/GZ0001553111.html'
p2072
aS'http://gz.lianjia.com/chengjiao/GZ0001967185.html'
p2073
aS'http://gz.lianjia.com/chengjiao/GZ0001251481.html'
p2074
aS'http://gz.lianjia.com/chengjiao/GZ0001340402.html'
p2075
aS'http://gz.lianjia.com/chengjiao/GZ0001926203.html'
p2076
aS'http://gz.lianjia.com/chengjiao/GZ0001581523.html'
p2077
aS'http://gz.lianjia.com/chengjiao/GZ0001667939.html'
p2078
aS'http://gz.lianjia.com/chengjiao/GZ0001473062.html'
p2079
aS'http://gz.lianjia.com/chengjiao/GZ0001536094.html'
p2080
aS'http://gz.lianjia.com/chengjiao/GZ0001872877.html'
p2081
aS'http://gz.lianjia.com/chengjiao/GZ0002246953.html'
p2082
aS'http://gz.lianjia.com/chengjiao/GZ0002271582.html'
p2083
aS'http://gz.lianjia.com/chengjiao/GZ0001485510.html'
p2084
aS'http://gz.lianjia.com/chengjiao/GZ0001379573.html'
p2085
aS'http://gz.lianjia.com/chengjiao/GZ0001698775.html'
p2086
aS'http://gz.lianjia.com/chengjiao/GZ0002403150.html'
p2087
aS'http://gz.lianjia.com/chengjiao/GZ0001921965.html'
p2088
aS'http://gz.lianjia.com/chengjiao/GZ0002429319.html'
p2089
aS'http://gz.lianjia.com/chengjiao/GZ0001287425.html'
p2090
aS'http://gz.lianjia.com/chengjiao/GZ0002107341.html'
p2091
aS'http://gz.lianjia.com/chengjiao/GZ0001372734.html'
p2092
aS'http://gz.lianjia.com/chengjiao/GZ0001658887.html'
p2093
aS'http://gz.lianjia.com/chengjiao/GZ0002053055.html'
p2094
aS'http://gz.lianjia.com/chengjiao/GZ0002169357.html'
p2095
aS'http://gz.lianjia.com/chengjiao/GZ0001438012.html'
p2096
aS'http://gz.lianjia.com/chengjiao/GZ0001567092.html'
p2097
aS'http://gz.lianjia.com/chengjiao/GZ0001386385.html'
p2098
aS'http://gz.lianjia.com/chengjiao/GZ0002300985.html'
p2099
aS'http://gz.lianjia.com/chengjiao/GZ0001576444.html'
p2100
aS'http://gz.lianjia.com/chengjiao/GZ0001339729.html'
p2101
aS'http://gz.lianjia.com/chengjiao/GZ0001834809.html'
p2102
aS'http://gz.lianjia.com/chengjiao/GZ0001373111.html'
p2103
aS'http://gz.lianjia.com/chengjiao/GZ0002140565.html'
p2104
aS'http://gz.lianjia.com/chengjiao/GZ0001946501.html'
p2105
aS'http://gz.lianjia.com/chengjiao/GZ0001264202.html'
p2106
aS'http://gz.lianjia.com/chengjiao/GZ0001988782.html'
p2107
aS'http://gz.lianjia.com/chengjiao/GZ0001372658.html'
p2108
aS'http://gz.lianjia.com/chengjiao/GZ0001991400.html'
p2109
aS'http://gz.lianjia.com/chengjiao/GZ0001942942.html'
p2110
aS'http://gz.lianjia.com/chengjiao/GZ0001804554.html'
p2111
aS'http://gz.lianjia.com/chengjiao/GZ0002128217.html'
p2112
aS'http://gz.lianjia.com/chengjiao/GZ0001576607.html'
p2113
aS'http://gz.lianjia.com/chengjiao/GZ0002456423.html'
p2114
aS'http://gz.lianjia.com/chengjiao/GZ0001793319.html'
p2115
aS'http://gz.lianjia.com/chengjiao/GZ0001265552.html'
p2116
aS'http://gz.lianjia.com/chengjiao/GZ0001934782.html'
p2117
aS'http://gz.lianjia.com/chengjiao/GZ0002408411.html'
p2118
aS'http://gz.lianjia.com/chengjiao/GZ0002411456.html'
p2119
aS'http://gz.lianjia.com/chengjiao/GZ0001552258.html'
p2120
aS'http://gz.lianjia.com/chengjiao/GZ0001515743.html'
p2121
aS'http://gz.lianjia.com/chengjiao/GZ0002345407.html'
p2122
aS'http://gz.lianjia.com/chengjiao/GZ0002261578.html'
p2123
aS'http://gz.lianjia.com/chengjiao/GZ0001667841.html'
p2124
aS'http://gz.lianjia.com/chengjiao/GZ0002185961.html'
p2125
aS'http://gz.lianjia.com/chengjiao/GZ0002538782.html'
p2126
aS'http://gz.lianjia.com/chengjiao/GZ0002422129.html'
p2127
aS'http://gz.lianjia.com/chengjiao/GZ0002192731.html'
p2128
aS'http://gz.lianjia.com/chengjiao/GZ0002235833.html'
p2129
aS'http://gz.lianjia.com/chengjiao/GZ0001897495.html'
p2130
aS'http://gz.lianjia.com/chengjiao/GZ0002342340.html'
p2131
aS'http://gz.lianjia.com/chengjiao/GZ0002541021.html'
p2132
aS'http://gz.lianjia.com/chengjiao/GZ0002457672.html'
p2133
aS'http://gz.lianjia.com/chengjiao/GZ0002405748.html'
p2134
aS'http://gz.lianjia.com/chengjiao/GZ0002307810.html'
p2135
aS'http://gz.lianjia.com/chengjiao/GZ0002317799.html'
p2136
aS'http://gz.lianjia.com/chengjiao/GZ0001508513.html'
p2137
aS'http://gz.lianjia.com/chengjiao/GZ0001596811.html'
p2138
aS'http://gz.lianjia.com/chengjiao/GZ0001747061.html'
p2139
aS'http://gz.lianjia.com/chengjiao/GZ0002273674.html'
p2140
aS'http://gz.lianjia.com/chengjiao/GZ0002379391.html'
p2141
aS'http://gz.lianjia.com/chengjiao/GZ0001599962.html'
p2142
aS'http://gz.lianjia.com/chengjiao/GZ0001657509.html'
p2143
aS'http://gz.lianjia.com/chengjiao/GZ0002433189.html'
p2144
aS'http://gz.lianjia.com/chengjiao/GZ0002185924.html'
p2145
aS'http://gz.lianjia.com/chengjiao/GZ0001912940.html'
p2146
aS'http://gz.lianjia.com/chengjiao/GZ0002185480.html'
p2147
aS'http://gz.lianjia.com/chengjiao/GZ0002234705.html'
p2148
aS'http://gz.lianjia.com/chengjiao/GZ0002269744.html'
p2149
aS'http://gz.lianjia.com/chengjiao/GZ0001237996.html'
p2150
aS'http://gz.lianjia.com/chengjiao/GZ0001378424.html'
p2151
aS'http://gz.lianjia.com/chengjiao/GZ0001868316.html'
p2152
aS'http://gz.lianjia.com/chengjiao/GZ0002336318.html'
p2153
aS'http://gz.lianjia.com/chengjiao/GZ0001740407.html'
p2154
aS'http://gz.lianjia.com/chengjiao/GZ0002297686.html'
p2155
aS'http://gz.lianjia.com/chengjiao/GZ0002092779.html'
p2156
aS'http://gz.lianjia.com/chengjiao/GZ0001809863.html'
p2157
aS'http://gz.lianjia.com/chengjiao/GZ0002252579.html'
p2158
aS'http://gz.lianjia.com/chengjiao/GZ0001260438.html'
p2159
aS'http://gz.lianjia.com/chengjiao/GZ0001772382.html'
p2160
aS'http://gz.lianjia.com/chengjiao/GZ0002187169.html'
p2161
aS'http://gz.lianjia.com/chengjiao/GZ0001772162.html'
p2162
aS'http://gz.lianjia.com/chengjiao/GZ0001990792.html'
p2163
aS'http://gz.lianjia.com/chengjiao/GZ0001834643.html'
p2164
aS'http://gz.lianjia.com/chengjiao/GZ0001948227.html'
p2165
aS'http://gz.lianjia.com/chengjiao/GZ0001939446.html'
p2166
aS'http://gz.lianjia.com/chengjiao/GZ0001281229.html'
p2167
aS'http://gz.lianjia.com/chengjiao/GZ0001494837.html'
p2168
aS'http://gz.lianjia.com/chengjiao/GZ0002329470.html'
p2169
aS'http://gz.lianjia.com/chengjiao/GZ0002404252.html'
p2170
aS'http://gz.lianjia.com/chengjiao/GZ0001710573.html'
p2171
aS'http://gz.lianjia.com/chengjiao/GZ0001835647.html'
p2172
aS'http://gz.lianjia.com/chengjiao/GZ0001836346.html'
p2173
aS'http://gz.lianjia.com/chengjiao/GZ0002068858.html'
p2174
aS'http://gz.lianjia.com/chengjiao/GZ0002443348.html'
p2175
aS'http://gz.lianjia.com/chengjiao/GZ0001636321.html'
p2176
aS'http://gz.lianjia.com/chengjiao/GZ0002095330.html'
p2177
aS'http://gz.lianjia.com/chengjiao/GZ0001618923.html'
p2178
aS'http://gz.lianjia.com/chengjiao/GZ0001871315.html'
p2179
aS'http://gz.lianjia.com/chengjiao/GZ0002201050.html'
p2180
aS'http://gz.lianjia.com/chengjiao/GZ0001885770.html'
p2181
aS'http://gz.lianjia.com/chengjiao/GZ0002185781.html'
p2182
aS'http://gz.lianjia.com/chengjiao/GZ0002249217.html'
p2183
aS'http://gz.lianjia.com/chengjiao/GZ0002332967.html'
p2184
aS'http://gz.lianjia.com/chengjiao/GZ0001392237.html'
p2185
aS'http://gz.lianjia.com/chengjiao/GZ0002000278.html'
p2186
aS'http://gz.lianjia.com/chengjiao/GZ0002235069.html'
p2187
aS'http://gz.lianjia.com/chengjiao/GZ0002085857.html'
p2188
aS'http://gz.lianjia.com/chengjiao/GZ0001381542.html'
p2189
aS'http://gz.lianjia.com/chengjiao/GZ0001615441.html'
p2190
aS'http://gz.lianjia.com/chengjiao/GZ0002185156.html'
p2191
aS'http://gz.lianjia.com/chengjiao/GZ0001263027.html'
p2192
aS'http://gz.lianjia.com/chengjiao/GZ0001854723.html'
p2193
aS'http://gz.lianjia.com/chengjiao/GZ0001346067.html'
p2194
aS'http://gz.lianjia.com/chengjiao/GZ0001703378.html'
p2195
aS'http://gz.lianjia.com/chengjiao/GZ0002146299.html'
p2196
aS'http://gz.lianjia.com/chengjiao/GZ0002196169.html'
p2197
aS'http://gz.lianjia.com/chengjiao/GZ0001919640.html'
p2198
aS'http://gz.lianjia.com/chengjiao/GZ0001255770.html'
p2199
aS'http://gz.lianjia.com/chengjiao/GZ0001930254.html'
p2200
aS'http://gz.lianjia.com/chengjiao/GZ0001992000.html'
p2201
aS'http://gz.lianjia.com/chengjiao/GZ0001233322.html'
p2202
aS'http://gz.lianjia.com/chengjiao/GZ0002334847.html'
p2203
aS'http://gz.lianjia.com/chengjiao/GZ0002158662.html'
p2204
aS'http://gz.lianjia.com/chengjiao/GZ0001276257.html'
p2205
aS'http://gz.lianjia.com/chengjiao/GZ0002299274.html'
p2206
aS'http://gz.lianjia.com/chengjiao/GZ0002305634.html'
p2207
aS'http://gz.lianjia.com/chengjiao/GZ0002064606.html'
p2208
aS'http://gz.lianjia.com/chengjiao/GZ0001628040.html'
p2209
aS'http://gz.lianjia.com/chengjiao/GZ0001609205.html'
p2210
aS'http://gz.lianjia.com/chengjiao/GZ0001686441.html'
p2211
aS'http://gz.lianjia.com/chengjiao/GZ0001634789.html'
p2212
aS'http://gz.lianjia.com/chengjiao/GZ0002274573.html'
p2213
aS'http://gz.lianjia.com/chengjiao/GZ0001805185.html'
p2214
aS'http://gz.lianjia.com/chengjiao/GZ0002185812.html'
p2215
aS'http://gz.lianjia.com/chengjiao/GZ0002186692.html'
p2216
aS'http://gz.lianjia.com/chengjiao/GZ0002291459.html'
p2217
aS'http://gz.lianjia.com/chengjiao/GZ0002037155.html'
p2218
aS'http://gz.lianjia.com/chengjiao/GZ0001795682.html'
p2219
aS'http://gz.lianjia.com/chengjiao/GZ0001665774.html'
p2220
aS'http://gz.lianjia.com/chengjiao/GZ0002577158.html'
p2221
aS'http://gz.lianjia.com/chengjiao/GZ0001700066.html'
p2222
aS'http://gz.lianjia.com/chengjiao/GZ0002413450.html'
p2223
aS'http://gz.lianjia.com/chengjiao/GZ0002393108.html'
p2224
aS'http://gz.lianjia.com/chengjiao/GZ0002275556.html'
p2225
aS'http://gz.lianjia.com/chengjiao/GZ0001528074.html'
p2226
aS'http://gz.lianjia.com/chengjiao/GZ0002260328.html'
p2227
aS'http://gz.lianjia.com/chengjiao/GZ0002324364.html'
p2228
aS'http://gz.lianjia.com/chengjiao/GZ0001634565.html'
p2229
aS'http://gz.lianjia.com/chengjiao/GZ0001290104.html'
p2230
aS'http://gz.lianjia.com/chengjiao/GZ0001795798.html'
p2231
aS'http://gz.lianjia.com/chengjiao/GZ0001258525.html'
p2232
aS'http://gz.lianjia.com/chengjiao/GZ0001939289.html'
p2233
aS'http://gz.lianjia.com/chengjiao/GZ0001516755.html'
p2234
aS'http://gz.lianjia.com/chengjiao/GZ0001228445.html'
p2235
aS'http://gz.lianjia.com/chengjiao/GZ0001634871.html'
p2236
aS'http://gz.lianjia.com/chengjiao/GZ0002006641.html'
p2237
aS'http://gz.lianjia.com/chengjiao/GZ0001372516.html'
p2238
aS'http://gz.lianjia.com/chengjiao/GZ0002321117.html'
p2239
aS'http://gz.lianjia.com/chengjiao/GZ0001997482.html'
p2240
aS'http://gz.lianjia.com/chengjiao/GZ0001812350.html'
p2241
aS'http://gz.lianjia.com/chengjiao/GZ0001949110.html'
p2242
aS'http://gz.lianjia.com/chengjiao/GZ0001364615.html'
p2243
aS'http://gz.lianjia.com/chengjiao/GZ0002197639.html'
p2244
aS'http://gz.lianjia.com/chengjiao/GZ0001833793.html'
p2245
aS'http://gz.lianjia.com/chengjiao/GZ0001398750.html'
p2246
aS'http://gz.lianjia.com/chengjiao/GZ0002248792.html'
p2247
aS'http://gz.lianjia.com/chengjiao/GZ0002347474.html'
p2248
aS'http://gz.lianjia.com/chengjiao/GZ0002298361.html'
p2249
aS'http://gz.lianjia.com/chengjiao/GZ0001896206.html'
p2250
aS'http://gz.lianjia.com/chengjiao/GZ0001553265.html'
p2251
aS'http://gz.lianjia.com/chengjiao/GZ0002316652.html'
p2252
aS'http://gz.lianjia.com/chengjiao/GZ0001805336.html'
p2253
aS'http://gz.lianjia.com/chengjiao/GZ0002575110.html'
p2254
aS'http://gz.lianjia.com/chengjiao/GZ0001606435.html'
p2255
aS'http://gz.lianjia.com/chengjiao/GZ0001933583.html'
p2256
aS'http://gz.lianjia.com/chengjiao/GZ0002192331.html'
p2257
aS'http://gz.lianjia.com/chengjiao/GZ0002400012.html'
p2258
aS'http://gz.lianjia.com/chengjiao/GZ0001790231.html'
p2259
aS'http://gz.lianjia.com/chengjiao/GZ0001275649.html'
p2260
aS'http://gz.lianjia.com/chengjiao/GZ0001711318.html'
p2261
aS'http://gz.lianjia.com/chengjiao/GZ0002201115.html'
p2262
aS'http://gz.lianjia.com/chengjiao/GZ0001627431.html'
p2263
aS'http://gz.lianjia.com/chengjiao/GZ0002052940.html'
p2264
aS'http://gz.lianjia.com/chengjiao/GZ0001885386.html'
p2265
aS'http://gz.lianjia.com/chengjiao/GZ0002315621.html'
p2266
aS'http://gz.lianjia.com/chengjiao/GZ0002346147.html'
p2267
aS'http://gz.lianjia.com/chengjiao/GZ0002247637.html'
p2268
aS'http://gz.lianjia.com/chengjiao/GZ0002325026.html'
p2269
aS'http://gz.lianjia.com/chengjiao/GZ0001523456.html'
p2270
aS'http://gz.lianjia.com/chengjiao/GZ0002170991.html'
p2271
aS'http://gz.lianjia.com/chengjiao/GZ0001826680.html'
p2272
aS'http://gz.lianjia.com/chengjiao/GZ0002270914.html'
p2273
aS'http://gz.lianjia.com/chengjiao/GZ0001960399.html'
p2274
aS'http://gz.lianjia.com/chengjiao/GZ0001380138.html'
p2275
aS'http://gz.lianjia.com/chengjiao/GZ0001831173.html'
p2276
aS'http://gz.lianjia.com/chengjiao/GZ0001396484.html'
p2277
aS'http://gz.lianjia.com/chengjiao/GZ0001967302.html'
p2278
aS'http://gz.lianjia.com/chengjiao/GZ0001655559.html'
p2279
aS'http://gz.lianjia.com/chengjiao/GZ0001279268.html'
p2280
aS'http://gz.lianjia.com/chengjiao/GZ0001870222.html'
p2281
aS'http://gz.lianjia.com/chengjiao/GZ0001532661.html'
p2282
aS'http://gz.lianjia.com/chengjiao/GZ0001913745.html'
p2283
aS'http://gz.lianjia.com/chengjiao/GZ0001485003.html'
p2284
aS'http://gz.lianjia.com/chengjiao/GZ0002122968.html'
p2285
aS'http://gz.lianjia.com/chengjiao/GZ0001549233.html'
p2286
aS'http://gz.lianjia.com/chengjiao/GZ0002255411.html'
p2287
aS'http://gz.lianjia.com/chengjiao/GZ0002324685.html'
p2288
aS'http://gz.lianjia.com/chengjiao/GZ0001971854.html'
p2289
aS'http://gz.lianjia.com/chengjiao/GZ0002526641.html'
p2290
aS'http://gz.lianjia.com/chengjiao/GZ0001396408.html'
p2291
aS'http://gz.lianjia.com/chengjiao/GZ0002006520.html'
p2292
aS'http://gz.lianjia.com/chengjiao/GZ0002420045.html'
p2293
aS'http://gz.lianjia.com/chengjiao/GZ0001990625.html'
p2294
aS'http://gz.lianjia.com/chengjiao/GZ0002234592.html'
p2295
aS'http://gz.lianjia.com/chengjiao/GZ0002348874.html'
p2296
aS'http://gz.lianjia.com/chengjiao/GZ0001553319.html'
p2297
aS'http://gz.lianjia.com/chengjiao/GZ0001733901.html'
p2298
aS'http://gz.lianjia.com/chengjiao/GZ0001668728.html'
p2299
aS'http://gz.lianjia.com/chengjiao/GZ0001261450.html'
p2300
aS'http://gz.lianjia.com/chengjiao/GZ0001942362.html'
p2301
aS'http://gz.lianjia.com/chengjiao/GZ0002414712.html'
p2302
aS'http://gz.lianjia.com/chengjiao/GZ0002190502.html'
p2303
aS'http://gz.lianjia.com/chengjiao/GZ0001624979.html'
p2304
aS'http://gz.lianjia.com/chengjiao/GZ0002185634.html'
p2305
aS'http://gz.lianjia.com/chengjiao/GZ0002303654.html'
p2306
aS'http://gz.lianjia.com/chengjiao/GZ0001228982.html'
p2307
aS'http://gz.lianjia.com/chengjiao/GZ0001234531.html'
p2308
aS'http://gz.lianjia.com/chengjiao/GZ0002546748.html'
p2309
aS'http://gz.lianjia.com/chengjiao/GZ0001707394.html'
p2310
aS'http://gz.lianjia.com/chengjiao/GZ0001689389.html'
p2311
aS'http://gz.lianjia.com/chengjiao/GZ0001275068.html'
p2312
aS'http://gz.lianjia.com/chengjiao/GZ0002564834.html'
p2313
aS'http://gz.lianjia.com/chengjiao/GZ0002570416.html'
p2314
aS'http://gz.lianjia.com/chengjiao/GZ0001767147.html'
p2315
aS'http://gz.lianjia.com/chengjiao/GZ0001227993.html'
p2316
aS'http://gz.lianjia.com/chengjiao/GZ0002454927.html'
p2317
aS'http://gz.lianjia.com/chengjiao/GZ0001709634.html'
p2318
aS'http://gz.lianjia.com/chengjiao/GZ0002527357.html'
p2319
aS'http://gz.lianjia.com/chengjiao/GZ0002542483.html'
p2320
aS'http://gz.lianjia.com/chengjiao/GZ0001932277.html'
p2321
aS'http://gz.lianjia.com/chengjiao/GZ0001913965.html'
p2322
aS'http://gz.lianjia.com/chengjiao/GZ0002167266.html'
p2323
aS'http://gz.lianjia.com/chengjiao/GZ0001277675.html'
p2324
aS'http://gz.lianjia.com/chengjiao/GZ0002345530.html'
p2325
aS'http://gz.lianjia.com/chengjiao/GZ0001472776.html'
p2326
aS'http://gz.lianjia.com/chengjiao/GZ0001938720.html'
p2327
aS'http://gz.lianjia.com/chengjiao/GZ0001965640.html'
p2328
aS'http://gz.lianjia.com/chengjiao/GZ0002246374.html'
p2329
aS'http://gz.lianjia.com/chengjiao/GZ0002419293.html'
p2330
aS'http://gz.lianjia.com/chengjiao/GZ0001442684.html'
p2331
aS'http://gz.lianjia.com/chengjiao/GZ0002387424.html'
p2332
aS'http://gz.lianjia.com/chengjiao/GZ0001227652.html'
p2333
aS'http://gz.lianjia.com/chengjiao/GZ0002303670.html'
p2334
aS'http://gz.lianjia.com/chengjiao/GZ0001971715.html'
p2335
aS'http://gz.lianjia.com/chengjiao/GZ0002187556.html'
p2336
aS'http://gz.lianjia.com/chengjiao/GZ0002181742.html'
p2337
aS'http://gz.lianjia.com/chengjiao/GZ0002296304.html'
p2338
aS'http://gz.lianjia.com/chengjiao/GZ0002269897.html'
p2339
aS'http://gz.lianjia.com/chengjiao/GZ0002399110.html'
p2340
aS'http://gz.lianjia.com/chengjiao/GZ0001871229.html'
p2341
aS'http://gz.lianjia.com/chengjiao/GZ0001229102.html'
p2342
aS'http://gz.lianjia.com/chengjiao/GZ0002290825.html'
p2343
aS'http://gz.lianjia.com/chengjiao/GZ0002444838.html'
p2344
aS'http://gz.lianjia.com/chengjiao/GZ0002388513.html'
p2345
aS'http://gz.lianjia.com/chengjiao/GZ0001973800.html'
p2346
aS'http://gz.lianjia.com/chengjiao/GZ0001625588.html'
p2347
aS'http://gz.lianjia.com/chengjiao/GZ0002088843.html'
p2348
aS'http://gz.lianjia.com/chengjiao/GZ0001735442.html'
p2349
aS'http://gz.lianjia.com/chengjiao/GZ0002279304.html'
p2350
aS'http://gz.lianjia.com/chengjiao/GZ0001625491.html'
p2351
aS'http://gz.lianjia.com/chengjiao/GZ0001283636.html'
p2352
aS'http://gz.lianjia.com/chengjiao/GZ0002441395.html'
p2353
aS'http://gz.lianjia.com/chengjiao/GZ0002323791.html'
p2354
aS'http://gz.lianjia.com/chengjiao/GZ0001367616.html'
p2355
aS'http://gz.lianjia.com/chengjiao/GZ0002325650.html'
p2356
aS'http://gz.lianjia.com/chengjiao/GZ0002396992.html'
p2357
aS'http://gz.lianjia.com/chengjiao/GZ0001660543.html'
p2358
aS'http://gz.lianjia.com/chengjiao/GZ0001261917.html'
p2359
aS'http://gz.lianjia.com/chengjiao/GZ0001596218.html'
p2360
aS'http://gz.lianjia.com/chengjiao/GZ0001800010.html'
p2361
aS'http://gz.lianjia.com/chengjiao/GZ0001660188.html'
p2362
aS'http://gz.lianjia.com/chengjiao/GZ0001924727.html'
p2363
aS'http://gz.lianjia.com/chengjiao/GZ0002185465.html'
p2364
aS'http://gz.lianjia.com/chengjiao/GZ0001824668.html'
p2365
aS'http://gz.lianjia.com/chengjiao/GZ0002165558.html'
p2366
aS'http://gz.lianjia.com/chengjiao/GZ0001921497.html'
p2367
aS'http://gz.lianjia.com/chengjiao/GZ0001284377.html'
p2368
aS'http://gz.lianjia.com/chengjiao/GZ0002281993.html'
p2369
aS'http://gz.lianjia.com/chengjiao/GZ0002000939.html'
p2370
aS'http://gz.lianjia.com/chengjiao/GZ0001455683.html'
p2371
aS'http://gz.lianjia.com/chengjiao/GZ0001661717.html'
p2372
aS'http://gz.lianjia.com/chengjiao/GZ0002269655.html'
p2373
aS'http://gz.lianjia.com/chengjiao/GZ0001686422.html'
p2374
aS'http://gz.lianjia.com/chengjiao/GZ0002573888.html'
p2375
aS'http://gz.lianjia.com/chengjiao/GZ0001783862.html'
p2376
aS'http://gz.lianjia.com/chengjiao/GZ0001766149.html'
p2377
aS'http://gz.lianjia.com/chengjiao/GZ0001249759.html'
p2378
aS'http://gz.lianjia.com/chengjiao/GZ0002198072.html'
p2379
aS'http://gz.lianjia.com/chengjiao/GZ0001709586.html'
p2380
aS'http://gz.lianjia.com/chengjiao/GZ0002551846.html'
p2381
aS'http://gz.lianjia.com/chengjiao/GZ0001875774.html'
p2382
aS'http://gz.lianjia.com/chengjiao/GZ0001770815.html'
p2383
aS'http://gz.lianjia.com/chengjiao/GZ0002238358.html'
p2384
aS'http://gz.lianjia.com/chengjiao/GZ0001964422.html'
p2385
aS'http://gz.lianjia.com/chengjiao/GZ0002197825.html'
p2386
aS'http://gz.lianjia.com/chengjiao/GZ0001912975.html'
p2387
aS'http://gz.lianjia.com/chengjiao/GZ0002344967.html'
p2388
aS'http://gz.lianjia.com/chengjiao/GZ0001832382.html'
p2389
aS'http://gz.lianjia.com/chengjiao/GZ0001276368.html'
p2390
aS'http://gz.lianjia.com/chengjiao/GZ0002099967.html'
p2391
aS'http://gz.lianjia.com/chengjiao/GZ0002045218.html'
p2392
aS'http://gz.lianjia.com/chengjiao/GZ0001867539.html'
p2393
aS'http://gz.lianjia.com/chengjiao/GZ0002382035.html'
p2394
aS'http://gz.lianjia.com/chengjiao/GZ0002242550.html'
p2395
aS'http://gz.lianjia.com/chengjiao/GZ0002055642.html'
p2396
aS'http://gz.lianjia.com/chengjiao/GZ0001974868.html'
p2397
aS'http://gz.lianjia.com/chengjiao/GZ0002187135.html'
p2398
aS'http://gz.lianjia.com/chengjiao/GZ0002409195.html'
p2399
aS'http://gz.lianjia.com/chengjiao/GZ0002291460.html'
p2400
aS'http://gz.lianjia.com/chengjiao/GZ0002456443.html'
p2401
aS'http://gz.lianjia.com/chengjiao/GZ0001901439.html'
p2402
aS'http://gz.lianjia.com/chengjiao/GZ0002052634.html'
p2403
aS'http://gz.lianjia.com/chengjiao/GZ0002292681.html'
p2404
aS'http://gz.lianjia.com/chengjiao/GZ0002392412.html'
p2405
aS'http://gz.lianjia.com/chengjiao/GZ0002554695.html'
p2406
aS'http://gz.lianjia.com/chengjiao/GZ0002568990.html'
p2407
aS'http://gz.lianjia.com/chengjiao/GZ0002186377.html'
p2408
aS'http://gz.lianjia.com/chengjiao/GZ0002065783.html'
p2409
aS'http://gz.lianjia.com/chengjiao/GZ0001340562.html'
p2410
aS'http://gz.lianjia.com/chengjiao/GZ0002185997.html'
p2411
aS'http://gz.lianjia.com/chengjiao/GZ0002579199.html'
p2412
aS'http://gz.lianjia.com/chengjiao/GZ0002235832.html'
p2413
aS'http://gz.lianjia.com/chengjiao/GZ0001346432.html'
p2414
aS'http://gz.lianjia.com/chengjiao/GZ0002288125.html'
p2415
aS'http://gz.lianjia.com/chengjiao/GZ0002004671.html'
p2416
aS'http://gz.lianjia.com/chengjiao/GZ0001793475.html'
p2417
aS'http://gz.lianjia.com/chengjiao/GZ0001584178.html'
p2418
aS'http://gz.lianjia.com/chengjiao/GZ0001972163.html'
p2419
aS'http://gz.lianjia.com/chengjiao/GZ0001569777.html'
p2420
aS'http://gz.lianjia.com/chengjiao/GZ0001708299.html'
p2421
aS'http://gz.lianjia.com/chengjiao/GZ0001801637.html'
p2422
aS'http://gz.lianjia.com/chengjiao/GZ0001658210.html'
p2423
aS'http://gz.lianjia.com/chengjiao/GZ0001871461.html'
p2424
aS'http://gz.lianjia.com/chengjiao/GZ0001697123.html'
p2425
aS'http://gz.lianjia.com/chengjiao/GZ0002248887.html'
p2426
aS'http://gz.lianjia.com/chengjiao/GZ0001634576.html'
p2427
aS'http://gz.lianjia.com/chengjiao/GZ0002197969.html'
p2428
aS'http://gz.lianjia.com/chengjiao/GZ0002524039.html'
p2429
aS'http://gz.lianjia.com/chengjiao/GZ0002330465.html'
p2430
aS'http://gz.lianjia.com/chengjiao/GZ0002039140.html'
p2431
aS'http://gz.lianjia.com/chengjiao/GZ0002119083.html'
p2432
aS'http://gz.lianjia.com/chengjiao/GZ0002544128.html'
p2433
aS'http://gz.lianjia.com/chengjiao/GZ0002190435.html'
p2434
aS'http://gz.lianjia.com/chengjiao/GZ0001579965.html'
p2435
aS'http://gz.lianjia.com/chengjiao/GZ0001571051.html'
p2436
aS'http://gz.lianjia.com/chengjiao/GZ0002329487.html'
p2437
aS'http://gz.lianjia.com/chengjiao/GZ0001732652.html'
p2438
aS'http://gz.lianjia.com/chengjiao/GZ0001909060.html'
p2439
aS'http://gz.lianjia.com/chengjiao/GZ0001609302.html'
p2440
aS'http://gz.lianjia.com/chengjiao/GZ0002431843.html'
p2441
aS'http://gz.lianjia.com/chengjiao/GZ0001948409.html'
p2442
aS'http://gz.lianjia.com/chengjiao/GZ0002540345.html'
p2443
aS'http://gz.lianjia.com/chengjiao/GZ0002536657.html'
p2444
aS'http://gz.lianjia.com/chengjiao/GZ0002243588.html'
p2445
aS'http://gz.lianjia.com/chengjiao/GZ0001801510.html'
p2446
aS'http://gz.lianjia.com/chengjiao/GZ0001269242.html'
p2447
aS'http://gz.lianjia.com/chengjiao/GZ0002192109.html'
p2448
aS'http://gz.lianjia.com/chengjiao/GZ0002415466.html'
p2449
aS'http://gz.lianjia.com/chengjiao/GZ0002187122.html'
p2450
aS'http://gz.lianjia.com/chengjiao/GZ0002433582.html'
p2451
aS'http://gz.lianjia.com/chengjiao/GZ0002247086.html'
p2452
aS'http://gz.lianjia.com/chengjiao/GZ0001835439.html'
p2453
aS'http://gz.lianjia.com/chengjiao/GZ0001973412.html'
p2454
aS'http://gz.lianjia.com/chengjiao/GZ0001519042.html'
p2455
aS'http://gz.lianjia.com/chengjiao/GZ0001285564.html'
p2456
aS'http://gz.lianjia.com/chengjiao/GZ0002424242.html'
p2457
aS'http://gz.lianjia.com/chengjiao/GZ0002236260.html'
p2458
aS'http://gz.lianjia.com/chengjiao/GZ0002315193.html'
p2459
aS'http://gz.lianjia.com/chengjiao/GZ0001552691.html'
p2460
aS'http://gz.lianjia.com/chengjiao/GZ0002199017.html'
p2461
aS'http://gz.lianjia.com/chengjiao/GZ0002195659.html'
p2462
aS'http://gz.lianjia.com/chengjiao/GZ0001440504.html'
p2463
aS'http://gz.lianjia.com/chengjiao/GZ0001278357.html'
p2464
aS'http://gz.lianjia.com/chengjiao/GZ0002378057.html'
p2465
aS'http://gz.lianjia.com/chengjiao/GZ0001604107.html'
p2466
aS'http://gz.lianjia.com/chengjiao/GZ0001975303.html'
p2467
aS'http://gz.lianjia.com/chengjiao/GZ0002441826.html'
p2468
aS'http://gz.lianjia.com/chengjiao/GZ0001607552.html'
p2469
aS'http://gz.lianjia.com/chengjiao/GZ0002000532.html'
p2470
aS'http://gz.lianjia.com/chengjiao/GZ0002452564.html'
p2471
aS'http://gz.lianjia.com/chengjiao/GZ0002249939.html'
p2472
aS'http://gz.lianjia.com/chengjiao/GZ0001780469.html'
p2473
aS'http://gz.lianjia.com/chengjiao/GZ0002368619.html'
p2474
aS'http://gz.lianjia.com/chengjiao/GZ0002185389.html'
p2475
aS'http://gz.lianjia.com/chengjiao/GZ0002157013.html'
p2476
aS'http://gz.lianjia.com/chengjiao/GZ0001672460.html'
p2477
aS'http://gz.lianjia.com/chengjiao/GZ0001670516.html'
p2478
aS'http://gz.lianjia.com/chengjiao/GZ0002567744.html'
p2479
aS'http://gz.lianjia.com/chengjiao/GZ0001608983.html'
p2480
aS'http://gz.lianjia.com/chengjiao/GZ0002000436.html'
p2481
aS'http://gz.lianjia.com/chengjiao/GZ0002280079.html'
p2482
aS'http://gz.lianjia.com/chengjiao/GZ0002062032.html'
p2483
aS'http://gz.lianjia.com/chengjiao/GZ0001987170.html'
p2484
aS'http://gz.lianjia.com/chengjiao/GZ0002266842.html'
p2485
aS'http://gz.lianjia.com/chengjiao/GZ0001947790.html'
p2486
aS'http://gz.lianjia.com/chengjiao/GZ0002386707.html'
p2487
aS'http://gz.lianjia.com/chengjiao/GZ0001618842.html'
p2488
aS'http://gz.lianjia.com/chengjiao/GZ0002379138.html'
p2489
aS'http://gz.lianjia.com/chengjiao/GZ0002192495.html'
p2490
aS'http://gz.lianjia.com/chengjiao/GZ0001250488.html'
p2491
aS'http://gz.lianjia.com/chengjiao/GZ0001265616.html'
p2492
aS'http://gz.lianjia.com/chengjiao/GZ0002334281.html'
p2493
aS'http://gz.lianjia.com/chengjiao/GZ0001587138.html'
p2494
aS'http://gz.lianjia.com/chengjiao/GZ0001622208.html'
p2495
aS'http://gz.lianjia.com/chengjiao/GZ0002561711.html'
p2496
aS'http://gz.lianjia.com/chengjiao/GZ0002438443.html'
p2497
aS'http://gz.lianjia.com/chengjiao/GZ0001548499.html'
p2498
aS'http://gz.lianjia.com/chengjiao/GZ0002281083.html'
p2499
aS'http://gz.lianjia.com/chengjiao/GZ0002238370.html'
p2500
aS'http://gz.lianjia.com/chengjiao/GZ0002049217.html'
p2501
aS'http://gz.lianjia.com/chengjiao/GZ0001680239.html'
p2502
aS'http://gz.lianjia.com/chengjiao/GZ0002526252.html'
p2503
aS'http://gz.lianjia.com/chengjiao/GZ0001558079.html'
p2504
aS'http://gz.lianjia.com/chengjiao/GZ0002292769.html'
p2505
aS'http://gz.lianjia.com/chengjiao/GZ0002551622.html'
p2506
aS'http://gz.lianjia.com/chengjiao/GZ0002264329.html'
p2507
aS'http://gz.lianjia.com/chengjiao/GZ0002343444.html'
p2508
aS'http://gz.lianjia.com/chengjiao/GZ0002381376.html'
p2509
aS'http://gz.lianjia.com/chengjiao/GZ0001658839.html'
p2510
aS'http://gz.lianjia.com/chengjiao/GZ0002442588.html'
p2511
aS'http://gz.lianjia.com/chengjiao/GZ0001670701.html'
p2512
aS'http://gz.lianjia.com/chengjiao/GZ0001827069.html'
p2513
aS'http://gz.lianjia.com/chengjiao/GZ0001465249.html'
p2514
aS'http://gz.lianjia.com/chengjiao/GZ0001536707.html'
p2515
aS'http://gz.lianjia.com/chengjiao/GZ0001229182.html'
p2516
aS'http://gz.lianjia.com/chengjiao/GZ0002544994.html'
p2517
aS'http://gz.lianjia.com/chengjiao/GZ0002328581.html'
p2518
aS'http://gz.lianjia.com/chengjiao/GZ0001900882.html'
p2519
aS'http://gz.lianjia.com/chengjiao/GZ0001269141.html'
p2520
aS'http://gz.lianjia.com/chengjiao/GZ0001365284.html'
p2521
aS'http://gz.lianjia.com/chengjiao/GZ0002054300.html'
p2522
aS'http://gz.lianjia.com/chengjiao/GZ0001520544.html'
p2523
aS'http://gz.lianjia.com/chengjiao/GZ0002136466.html'
p2524
aS'http://gz.lianjia.com/chengjiao/GZ0001931418.html'
p2525
aS'http://gz.lianjia.com/chengjiao/GZ0001974599.html'
p2526
aS'http://gz.lianjia.com/chengjiao/GZ0001970495.html'
p2527
aS'http://gz.lianjia.com/chengjiao/GZ0001820527.html'
p2528
aS'http://gz.lianjia.com/chengjiao/GZ0001618795.html'
p2529
aS'http://gz.lianjia.com/chengjiao/GZ0001267996.html'
p2530
aS'http://gz.lianjia.com/chengjiao/GZ0002244494.html'
p2531
aS'http://gz.lianjia.com/chengjiao/GZ0001608087.html'
p2532
aS'http://gz.lianjia.com/chengjiao/GZ0002344577.html'
p2533
aS'http://gz.lianjia.com/chengjiao/GZ0002242801.html'
p2534
aS'http://gz.lianjia.com/chengjiao/GZ0001873579.html'
p2535
aS'http://gz.lianjia.com/chengjiao/GZ0002300648.html'
p2536
aS'http://gz.lianjia.com/chengjiao/GZ0002125498.html'
p2537
aS'http://gz.lianjia.com/chengjiao/GZ0001346271.html'
p2538
aS'http://gz.lianjia.com/chengjiao/GZ0001770231.html'
p2539
aS'http://gz.lianjia.com/chengjiao/GZ0001674098.html'
p2540
aS'http://gz.lianjia.com/chengjiao/GZ0001946601.html'
p2541
aS'http://gz.lianjia.com/chengjiao/GZ0001373212.html'
p2542
aS'http://gz.lianjia.com/chengjiao/GZ0001263756.html'
p2543
aS'http://gz.lianjia.com/chengjiao/GZ0002331046.html'
p2544
aS'http://gz.lianjia.com/chengjiao/GZ0001240137.html'
p2545
aS'http://gz.lianjia.com/chengjiao/GZ0002224943.html'
p2546
aS'http://gz.lianjia.com/chengjiao/GZ0001940196.html'
p2547
aS'http://gz.lianjia.com/chengjiao/GZ0001730282.html'
p2548
aS'http://gz.lianjia.com/chengjiao/GZ0001283635.html'
p2549
aS'http://gz.lianjia.com/chengjiao/GZ0002249938.html'
p2550
aS'http://gz.lianjia.com/chengjiao/GZ0001966169.html'
p2551
aS'http://gz.lianjia.com/chengjiao/GZ0001454476.html'
p2552
aS'http://gz.lianjia.com/chengjiao/GZ0001685501.html'
p2553
aS'http://gz.lianjia.com/chengjiao/GZ0001741809.html'
p2554
aS'http://gz.lianjia.com/chengjiao/GZ0002002137.html'
p2555
aS'http://gz.lianjia.com/chengjiao/GZ0001615720.html'
p2556
aS'http://gz.lianjia.com/chengjiao/GZ0001579849.html'
p2557
aS'http://gz.lianjia.com/chengjiao/GZ0001229890.html'
p2558
aS'http://gz.lianjia.com/chengjiao/GZ0002344207.html'
p2559
aS'http://gz.lianjia.com/chengjiao/GZ0001964314.html'
p2560
aS'http://gz.lianjia.com/chengjiao/GZ0002323207.html'
p2561
aS'http://gz.lianjia.com/chengjiao/GZ0001433517.html'
p2562
aS'http://gz.lianjia.com/chengjiao/GZ0001801347.html'
p2563
aS'http://gz.lianjia.com/chengjiao/GZ0002246039.html'
p2564
aS'http://gz.lianjia.com/chengjiao/GZ0002546865.html'
p2565
aS'http://gz.lianjia.com/chengjiao/GZ0001228916.html'
p2566
aS'http://gz.lianjia.com/chengjiao/GZ0001827290.html'
p2567
aS'http://gz.lianjia.com/chengjiao/GZ0002444754.html'
p2568
aS'http://gz.lianjia.com/chengjiao/GZ0002086447.html'
p2569
aS'http://gz.lianjia.com/chengjiao/GZ0001732548.html'
p2570
aS'http://gz.lianjia.com/chengjiao/GZ0002301260.html'
p2571
aS'http://gz.lianjia.com/chengjiao/GZ0002285906.html'
p2572
aS'http://gz.lianjia.com/chengjiao/GZ0001466369.html'
p2573
aS'http://gz.lianjia.com/chengjiao/GZ0001732203.html'
p2574
aS'http://gz.lianjia.com/chengjiao/GZ0002035610.html'
p2575
aS'http://gz.lianjia.com/chengjiao/GZ0002564140.html'
p2576
aS'http://gz.lianjia.com/chengjiao/GZ0002299580.html'
p2577
aS'http://gz.lianjia.com/chengjiao/GZ0001960845.html'
p2578
aS'http://gz.lianjia.com/chengjiao/GZ0001614734.html'
p2579
aS'http://gz.lianjia.com/chengjiao/GZ0002551606.html'
p2580
aS'http://gz.lianjia.com/chengjiao/GZ0001666415.html'
p2581
aS'http://gz.lianjia.com/chengjiao/GZ0001272756.html'
p2582
aS'http://gz.lianjia.com/chengjiao/GZ0002186282.html'
p2583
aS'http://gz.lianjia.com/chengjiao/GZ0001621730.html'
p2584
aS'http://gz.lianjia.com/chengjiao/GZ0001959258.html'
p2585
aS'http://gz.lianjia.com/chengjiao/GZ0001467664.html'
p2586
aS'http://gz.lianjia.com/chengjiao/GZ0002394606.html'
p2587
aS'http://gz.lianjia.com/chengjiao/GZ0002321182.html'
p2588
aS'http://gz.lianjia.com/chengjiao/GZ0001680093.html'
p2589
aS'http://gz.lianjia.com/chengjiao/GZ0002233699.html'
p2590
aS'http://gz.lianjia.com/chengjiao/GZ0001604281.html'
p2591
aS'http://gz.lianjia.com/chengjiao/GZ0002243970.html'
p2592
aS'http://gz.lianjia.com/chengjiao/GZ0002414452.html'
p2593
aS'http://gz.lianjia.com/chengjiao/GZ0002334479.html'
p2594
aS'http://gz.lianjia.com/chengjiao/GZ0001803882.html'
p2595
aS'http://gz.lianjia.com/chengjiao/GZ0001595772.html'
p2596
aS'http://gz.lianjia.com/chengjiao/GZ0002549925.html'
p2597
aS'http://gz.lianjia.com/chengjiao/GZ0001878576.html'
p2598
aS'http://gz.lianjia.com/chengjiao/GZ0001931480.html'
p2599
aS'http://gz.lianjia.com/chengjiao/GZ0002233089.html'
p2600
aS'http://gz.lianjia.com/chengjiao/GZ0002274688.html'
p2601
aS'http://gz.lianjia.com/chengjiao/GZ0002399033.html'
p2602
aS'http://gz.lianjia.com/chengjiao/GZ0002380998.html'
p2603
aS'http://gz.lianjia.com/chengjiao/GZ0001746354.html'
p2604
aS'http://gz.lianjia.com/chengjiao/GZ0002324816.html'
p2605
aS'http://gz.lianjia.com/chengjiao/GZ0001587653.html'
p2606
aS'http://gz.lianjia.com/chengjiao/GZ0001364337.html'
p2607
aS'http://gz.lianjia.com/chengjiao/GZ0001723085.html'
p2608
aS'http://gz.lianjia.com/chengjiao/GZ0001255734.html'
p2609
aS'http://gz.lianjia.com/chengjiao/GZ0002524172.html'
p2610
aS'http://gz.lianjia.com/chengjiao/GZ0001588911.html'
p2611
aS'http://gz.lianjia.com/chengjiao/GZ0001960586.html'
p2612
aS'http://gz.lianjia.com/chengjiao/GZ0002341802.html'
p2613
aS'http://gz.lianjia.com/chengjiao/GZ0001946963.html'
p2614
aS'http://gz.lianjia.com/chengjiao/GZ0002264528.html'
p2615
aS'http://gz.lianjia.com/chengjiao/GZ0001228847.html'
p2616
aS'http://gz.lianjia.com/chengjiao/GZ0002075033.html'
p2617
aS'http://gz.lianjia.com/chengjiao/GZ0002168833.html'
p2618
aS'http://gz.lianjia.com/chengjiao/GZ0001279148.html'
p2619
aS'http://gz.lianjia.com/chengjiao/GZ0002257744.html'
p2620
aS'http://gz.lianjia.com/chengjiao/GZ0002296370.html'
p2621
aS'http://gz.lianjia.com/chengjiao/GZ0001382019.html'
p2622
aS'http://gz.lianjia.com/chengjiao/GZ0001620165.html'
p2623
aS'http://gz.lianjia.com/chengjiao/GZ0002056100.html'
p2624
aS'http://gz.lianjia.com/chengjiao/GZ0001880894.html'
p2625
aS'http://gz.lianjia.com/chengjiao/GZ0001259710.html'
p2626
aS'http://gz.lianjia.com/chengjiao/GZ0002577486.html'
p2627
aS'http://gz.lianjia.com/chengjiao/GZ0002169891.html'
p2628
aS'http://gz.lianjia.com/chengjiao/GZ0002159931.html'
p2629
aS'http://gz.lianjia.com/chengjiao/GZ0001831177.html'
p2630
aS'http://gz.lianjia.com/chengjiao/GZ0002327201.html'
p2631
aS'http://gz.lianjia.com/chengjiao/GZ0002169707.html'
p2632
aS'http://gz.lianjia.com/chengjiao/GZ0002307479.html'
p2633
aS'http://gz.lianjia.com/chengjiao/GZ0001874794.html'
p2634
aS'http://gz.lianjia.com/chengjiao/GZ0002262107.html'
p2635
aS'http://gz.lianjia.com/chengjiao/GZ0001509676.html'
p2636
aS'http://gz.lianjia.com/chengjiao/GZ0001354417.html'
p2637
aS'http://gz.lianjia.com/chengjiao/GZ0002247098.html'
p2638
aS'http://gz.lianjia.com/chengjiao/GZ0002140378.html'
p2639
aS'http://gz.lianjia.com/chengjiao/GZ0002427221.html'
p2640
aS'http://gz.lianjia.com/chengjiao/GZ0002461161.html'
p2641
aS'http://gz.lianjia.com/chengjiao/GZ0002314923.html'
p2642
aS'http://gz.lianjia.com/chengjiao/GZ0001909672.html'
p2643
aS'http://gz.lianjia.com/chengjiao/GZ0002558313.html'
p2644
aS'http://gz.lianjia.com/chengjiao/GZ0001600187.html'
p2645
aS'http://gz.lianjia.com/chengjiao/GZ0001964579.html'
p2646
aS'http://gz.lianjia.com/chengjiao/GZ0002291963.html'
p2647
aS'http://gz.lianjia.com/chengjiao/GZ0001286624.html'
p2648
aS'http://gz.lianjia.com/chengjiao/GZ0001948405.html'
p2649
aS'http://gz.lianjia.com/chengjiao/GZ0002576955.html'
p2650
aS'http://gz.lianjia.com/chengjiao/GZ0001571072.html'
p2651
aS'http://gz.lianjia.com/chengjiao/GZ0002187587.html'
p2652
aS'http://gz.lianjia.com/chengjiao/GZ0001551490.html'
p2653
aS'http://gz.lianjia.com/chengjiao/GZ0002176813.html'
p2654
aS'http://gz.lianjia.com/chengjiao/GZ0001633216.html'
p2655
aS'http://gz.lianjia.com/chengjiao/GZ0002244196.html'
p2656
aS'http://gz.lianjia.com/chengjiao/GZ0002247586.html'
p2657
aS'http://gz.lianjia.com/chengjiao/GZ0001721173.html'
p2658
aS'http://gz.lianjia.com/chengjiao/GZ0001263287.html'
p2659
aS'http://gz.lianjia.com/chengjiao/GZ0001788417.html'
p2660
aS'http://gz.lianjia.com/chengjiao/GZ0002419879.html'
p2661
aS'http://gz.lianjia.com/chengjiao/GZ0001278302.html'
p2662
aS'http://gz.lianjia.com/chengjiao/GZ0001586786.html'
p2663
aS'http://gz.lianjia.com/chengjiao/GZ0001799621.html'
p2664
aS'http://gz.lianjia.com/chengjiao/GZ0002122757.html'
p2665
aS'http://gz.lianjia.com/chengjiao/GZ0002164392.html'
p2666
aS'http://gz.lianjia.com/chengjiao/GZ0002446244.html'
p2667
aS'http://gz.lianjia.com/chengjiao/GZ0002457132.html'
p2668
aS'http://gz.lianjia.com/chengjiao/GZ0002325209.html'
p2669
aS'http://gz.lianjia.com/chengjiao/GZ0001263299.html'
p2670
aS'http://gz.lianjia.com/chengjiao/GZ0001912545.html'
p2671
aS'http://gz.lianjia.com/chengjiao/GZ0002327532.html'
p2672
aS'http://gz.lianjia.com/chengjiao/GZ0001674669.html'
p2673
aS'http://gz.lianjia.com/chengjiao/GZ0001399255.html'
p2674
aS'http://gz.lianjia.com/chengjiao/GZ0002195325.html'
p2675
aS'http://gz.lianjia.com/chengjiao/GZ0002235292.html'
p2676
aS'http://gz.lianjia.com/chengjiao/GZ0001621497.html'
p2677
aS'http://gz.lianjia.com/chengjiao/GZ0002242101.html'
p2678
aS'http://gz.lianjia.com/chengjiao/GZ0001612321.html'
p2679
aS'http://gz.lianjia.com/chengjiao/GZ0002307872.html'
p2680
aS'http://gz.lianjia.com/chengjiao/GZ0001559680.html'
p2681
aS'http://gz.lianjia.com/chengjiao/GZ0002159193.html'
p2682
aS'http://gz.lianjia.com/chengjiao/GZ0002410432.html'
p2683
aS'http://gz.lianjia.com/chengjiao/GZ0002249726.html'
p2684
aS'http://gz.lianjia.com/chengjiao/GZ0002333511.html'
p2685
aS'http://gz.lianjia.com/chengjiao/GZ0002254986.html'
p2686
aS'http://gz.lianjia.com/chengjiao/GZ0001268068.html'
p2687
aS'http://gz.lianjia.com/chengjiao/GZ0002308144.html'
p2688
aS'http://gz.lianjia.com/chengjiao/GZ0001755695.html'
p2689
aS'http://gz.lianjia.com/chengjiao/GZ0001690245.html'
p2690
aS'http://gz.lianjia.com/chengjiao/GZ0001280053.html'
p2691
aS'http://gz.lianjia.com/chengjiao/GZ0002288440.html'
p2692
aS'http://gz.lianjia.com/chengjiao/GZ0001767611.html'
p2693
aS'http://gz.lianjia.com/chengjiao/GZ0001509203.html'
p2694
aS'http://gz.lianjia.com/chengjiao/GZ0002423788.html'
p2695
aS'http://gz.lianjia.com/chengjiao/GZ0002322222.html'
p2696
aS'http://gz.lianjia.com/chengjiao/GZ0002141669.html'
p2697
aS'http://gz.lianjia.com/chengjiao/GZ0001692499.html'
p2698
aS'http://gz.lianjia.com/chengjiao/GZ0001763530.html'
p2699
aS'http://gz.lianjia.com/chengjiao/GZ0002167230.html'
p2700
aS'http://gz.lianjia.com/chengjiao/GZ0002163763.html'
p2701
aS'http://gz.lianjia.com/chengjiao/GZ0002269575.html'
p2702
aS'http://gz.lianjia.com/chengjiao/GZ0001627337.html'
p2703
aS'http://gz.lianjia.com/chengjiao/GZ0001576534.html'
p2704
aS'http://gz.lianjia.com/chengjiao/GZ0002195902.html'
p2705
aS'http://gz.lianjia.com/chengjiao/GZ0001631556.html'
p2706
aS'http://gz.lianjia.com/chengjiao/GZ0002358224.html'
p2707
aS'http://gz.lianjia.com/chengjiao/GZ0001808827.html'
p2708
aS'http://gz.lianjia.com/chengjiao/GZ0002160911.html'
p2709
aS'http://gz.lianjia.com/chengjiao/GZ0001719700.html'
p2710
aS'http://gz.lianjia.com/chengjiao/GZ0002248174.html'
p2711
aS'http://gz.lianjia.com/chengjiao/GZ0002055863.html'
p2712
aS'http://gz.lianjia.com/chengjiao/GZ0002261949.html'
p2713
aS'http://gz.lianjia.com/chengjiao/GZ0001760057.html'
p2714
aS'http://gz.lianjia.com/chengjiao/GZ0001242688.html'
p2715
aS'http://gz.lianjia.com/chengjiao/GZ0002533208.html'
p2716
aS'http://gz.lianjia.com/chengjiao/GZ0002569284.html'
p2717
aS'http://gz.lianjia.com/chengjiao/GZ0001269889.html'
p2718
aS'http://gz.lianjia.com/chengjiao/GZ0001749111.html'
p2719
aS'http://gz.lianjia.com/chengjiao/GZ0001875096.html'
p2720
aS'http://gz.lianjia.com/chengjiao/GZ0002398999.html'
p2721
aS'http://gz.lianjia.com/chengjiao/GZ0002324367.html'
p2722
aS'http://gz.lianjia.com/chengjiao/GZ0002322715.html'
p2723
aS'http://gz.lianjia.com/chengjiao/GZ0002170401.html'
p2724
aS'http://gz.lianjia.com/chengjiao/GZ0001758131.html'
p2725
aS'http://gz.lianjia.com/chengjiao/GZ0002176028.html'
p2726
aS'http://gz.lianjia.com/chengjiao/GZ0002185782.html'
p2727
aS'http://gz.lianjia.com/chengjiao/GZ0001343906.html'
p2728
aS'http://gz.lianjia.com/chengjiao/GZ0001976299.html'
p2729
aS'http://gz.lianjia.com/chengjiao/GZ0001554433.html'
p2730
aS'http://gz.lianjia.com/chengjiao/GZ0002299712.html'
p2731
aS'http://gz.lianjia.com/chengjiao/GZ0001375272.html'
p2732
aS'http://gz.lianjia.com/chengjiao/GZ0001754771.html'
p2733
aS'http://gz.lianjia.com/chengjiao/GZ0001264230.html'
p2734
aS'http://gz.lianjia.com/chengjiao/GZ0002185751.html'
p2735
aS'http://gz.lianjia.com/chengjiao/GZ0001696647.html'
p2736
aS'http://gz.lianjia.com/chengjiao/GZ0001967943.html'
p2737
aS'http://gz.lianjia.com/chengjiao/GZ0001723692.html'
p2738
aS'http://gz.lianjia.com/chengjiao/GZ0002325346.html'
p2739
aS'http://gz.lianjia.com/chengjiao/GZ0001603459.html'
p2740
aS'http://gz.lianjia.com/chengjiao/GZ0001536465.html'
p2741
aS'http://gz.lianjia.com/chengjiao/GZ0001444145.html'
p2742
aS'http://gz.lianjia.com/chengjiao/GZ0001333340.html'
p2743
aS'http://gz.lianjia.com/chengjiao/GZ0001970744.html'
p2744
aS'http://gz.lianjia.com/chengjiao/GZ0001656237.html'
p2745
aS'http://gz.lianjia.com/chengjiao/GZ0002423711.html'
p2746
aS'http://gz.lianjia.com/chengjiao/GZ0002593902.html'
p2747
aS'http://gz.lianjia.com/chengjiao/GZ0002333010.html'
p2748
aS'http://gz.lianjia.com/chengjiao/GZ0001345237.html'
p2749
aS'http://gz.lianjia.com/chengjiao/GZ0001719946.html'
p2750
aS'http://gz.lianjia.com/chengjiao/GZ0001367645.html'
p2751
aS'http://gz.lianjia.com/chengjiao/GZ0002158274.html'
p2752
aS'http://gz.lianjia.com/chengjiao/GZ0001898294.html'
p2753
aS'http://gz.lianjia.com/chengjiao/GZ0002188609.html'
p2754
aS'http://gz.lianjia.com/chengjiao/GZ0001961399.html'
p2755
aS'http://gz.lianjia.com/chengjiao/GZ0001686301.html'
p2756
aS'http://gz.lianjia.com/chengjiao/GZ0001491907.html'
p2757
aS'http://gz.lianjia.com/chengjiao/GZ0002321251.html'
p2758
aS'http://gz.lianjia.com/chengjiao/GZ0002002465.html'
p2759
aS'http://gz.lianjia.com/chengjiao/GZ0001242586.html'
p2760
aS'http://gz.lianjia.com/chengjiao/GZ0001234480.html'
p2761
aS'http://gz.lianjia.com/chengjiao/GZ0002146450.html'
p2762
aS'http://gz.lianjia.com/chengjiao/GZ0001857764.html'
p2763
aS'http://gz.lianjia.com/chengjiao/GZ0001941631.html'
p2764
aS'http://gz.lianjia.com/chengjiao/GZ0002333996.html'
p2765
aS'http://gz.lianjia.com/chengjiao/GZ0002358748.html'
p2766
aS'http://gz.lianjia.com/chengjiao/GZ0002185746.html'
p2767
aS'http://gz.lianjia.com/chengjiao/GZ0002125557.html'
p2768
aS'http://gz.lianjia.com/chengjiao/GZ0001861251.html'
p2769
aS'http://gz.lianjia.com/chengjiao/GZ0001857309.html'
p2770
aS'http://gz.lianjia.com/chengjiao/GZ0001364958.html'
p2771
aS'http://gz.lianjia.com/chengjiao/GZ0001924829.html'
p2772
aS'http://gz.lianjia.com/chengjiao/GZ0002246240.html'
p2773
aS'http://gz.lianjia.com/chengjiao/GZ0002576427.html'
p2774
aS'http://gz.lianjia.com/chengjiao/GZ0002430288.html'
p2775
aS'http://gz.lianjia.com/chengjiao/GZ0001559166.html'
p2776
aS'http://gz.lianjia.com/chengjiao/GZ0001767086.html'
p2777
aS'http://gz.lianjia.com/chengjiao/GZ0002407999.html'
p2778
aS'http://gz.lianjia.com/chengjiao/GZ0002231557.html'
p2779
aS'http://gz.lianjia.com/chengjiao/GZ0002571523.html'
p2780
aS'http://gz.lianjia.com/chengjiao/GZ0002184541.html'
p2781
aS'http://gz.lianjia.com/chengjiao/GZ0001495742.html'
p2782
aS'http://gz.lianjia.com/chengjiao/GZ0001292168.html'
p2783
aS'http://gz.lianjia.com/chengjiao/GZ0001976107.html'
p2784
aS'http://gz.lianjia.com/chengjiao/GZ0001829872.html'
p2785
aS'http://gz.lianjia.com/chengjiao/GZ0001364587.html'
p2786
aS'http://gz.lianjia.com/chengjiao/GZ0001551679.html'
p2787
aS'http://gz.lianjia.com/chengjiao/GZ0002583528.html'
p2788
aS'http://gz.lianjia.com/chengjiao/GZ0001532768.html'
p2789
aS'http://gz.lianjia.com/chengjiao/GZ0001396053.html'
p2790
aS'http://gz.lianjia.com/chengjiao/GZ0001993148.html'
p2791
aS'http://gz.lianjia.com/chengjiao/GZ0001817982.html'
p2792
aS'http://gz.lianjia.com/chengjiao/GZ0002256303.html'
p2793
aS'http://gz.lianjia.com/chengjiao/GZ0002185787.html'
p2794
aS'http://gz.lianjia.com/chengjiao/GZ0002358874.html'
p2795
aS'http://gz.lianjia.com/chengjiao/GZ0002459694.html'
p2796
aS'http://gz.lianjia.com/chengjiao/GZ0001432288.html'
p2797
aS'http://gz.lianjia.com/chengjiao/GZ0001346508.html'
p2798
aS'http://gz.lianjia.com/chengjiao/GZ0002231986.html'
p2799
aS'http://gz.lianjia.com/chengjiao/GZ0001621245.html'
p2800
aS'http://gz.lianjia.com/chengjiao/GZ0002272572.html'
p2801
aS'http://gz.lianjia.com/chengjiao/GZ0001705821.html'
p2802
aS'http://gz.lianjia.com/chengjiao/GZ0002191441.html'
p2803
aS'http://gz.lianjia.com/chengjiao/GZ0002257050.html'
p2804
aS'http://gz.lianjia.com/chengjiao/GZ0002431808.html'
p2805
aS'http://gz.lianjia.com/chengjiao/GZ0001548801.html'
p2806
aS'http://gz.lianjia.com/chengjiao/GZ0001556634.html'
p2807
aS'http://gz.lianjia.com/chengjiao/GZ0001928998.html'
p2808
aS'http://gz.lianjia.com/chengjiao/GZ0002296028.html'
p2809
aS'http://gz.lianjia.com/chengjiao/GZ0002163093.html'
p2810
aS'http://gz.lianjia.com/chengjiao/GZ0001684252.html'
p2811
aS'http://gz.lianjia.com/chengjiao/GZ0001677923.html'
p2812
aS'http://gz.lianjia.com/chengjiao/GZ0002302105.html'
p2813
aS'http://gz.lianjia.com/chengjiao/GZ0002263764.html'
p2814
aS'http://gz.lianjia.com/chengjiao/GZ0002089631.html'
p2815
aS'http://gz.lianjia.com/chengjiao/GZ0001880897.html'
p2816
aS'http://gz.lianjia.com/chengjiao/GZ0001672857.html'
p2817
aS'http://gz.lianjia.com/chengjiao/GZ0002407695.html'
p2818
aS'http://gz.lianjia.com/chengjiao/GZ0002058764.html'
p2819
aS'http://gz.lianjia.com/chengjiao/GZ0001677281.html'
p2820
aS'http://gz.lianjia.com/chengjiao/GZ0001268428.html'
p2821
aS'http://gz.lianjia.com/chengjiao/GZ0002268132.html'
p2822
aS'http://gz.lianjia.com/chengjiao/GZ0001683309.html'
p2823
aS'http://gz.lianjia.com/chengjiao/GZ0002291433.html'
p2824
aS'http://gz.lianjia.com/chengjiao/GZ0002310205.html'
p2825
aS'http://gz.lianjia.com/chengjiao/GZ0002401528.html'
p2826
aS'http://gz.lianjia.com/chengjiao/GZ0001236425.html'
p2827
aS'http://gz.lianjia.com/chengjiao/GZ0002538527.html'
p2828
aS'http://gz.lianjia.com/chengjiao/GZ0001737312.html'
p2829
aS'http://gz.lianjia.com/chengjiao/GZ0002242963.html'
p2830
aS'http://gz.lianjia.com/chengjiao/GZ0002198181.html'
p2831
aS'http://gz.lianjia.com/chengjiao/GZ0002227067.html'
p2832
aS'http://gz.lianjia.com/chengjiao/GZ0002185100.html'
p2833
aS'http://gz.lianjia.com/chengjiao/GZ0001690792.html'
p2834
aS'http://gz.lianjia.com/chengjiao/GZ0001343820.html'
p2835
aS'http://gz.lianjia.com/chengjiao/GZ0001354960.html'
p2836
aS'http://gz.lianjia.com/chengjiao/GZ0001392113.html'
p2837
aS'http://gz.lianjia.com/chengjiao/GZ0002335334.html'
p2838
aS'http://gz.lianjia.com/chengjiao/GZ0001229680.html'
p2839
aS'http://gz.lianjia.com/chengjiao/GZ0002046361.html'
p2840
aS'http://gz.lianjia.com/chengjiao/GZ0001260483.html'
p2841
aS'http://gz.lianjia.com/chengjiao/GZ0002253322.html'
p2842
aS'http://gz.lianjia.com/chengjiao/GZ0002302588.html'
p2843
aS'http://gz.lianjia.com/chengjiao/GZ0001239033.html'
p2844
aS'http://gz.lianjia.com/chengjiao/GZ0002190468.html'
p2845
aS'http://gz.lianjia.com/chengjiao/GZ0001630366.html'
p2846
aS'http://gz.lianjia.com/chengjiao/GZ0001435427.html'
p2847
aS'http://gz.lianjia.com/chengjiao/GZ0001947150.html'
p2848
aS'http://gz.lianjia.com/chengjiao/GZ0001835648.html'
p2849
aS'http://gz.lianjia.com/chengjiao/GZ0002198963.html'
p2850
aS'http://gz.lianjia.com/chengjiao/GZ0002301685.html'
p2851
aS'http://gz.lianjia.com/chengjiao/GZ0002097235.html'
p2852
aS'http://gz.lianjia.com/chengjiao/GZ0001270746.html'
p2853
aS'http://gz.lianjia.com/chengjiao/GZ0002248415.html'
p2854
aS'http://gz.lianjia.com/chengjiao/GZ0001807377.html'
p2855
aS'http://gz.lianjia.com/chengjiao/GZ0001935896.html'
p2856
aS'http://gz.lianjia.com/chengjiao/GZ0001727653.html'
p2857
aS'http://gz.lianjia.com/chengjiao/GZ0001621265.html'
p2858
aS'http://gz.lianjia.com/chengjiao/GZ0001713911.html'
p2859
aS'http://gz.lianjia.com/chengjiao/GZ0001534438.html'
p2860
aS'http://gz.lianjia.com/chengjiao/GZ0001637211.html'
p2861
aS'http://gz.lianjia.com/chengjiao/GZ0001933637.html'
p2862
aS'http://gz.lianjia.com/chengjiao/GZ0002325582.html'
p2863
aS'http://gz.lianjia.com/chengjiao/GZ0001859457.html'
p2864
aS'http://gz.lianjia.com/chengjiao/GZ0001345870.html'
p2865
aS'http://gz.lianjia.com/chengjiao/GZ0002242052.html'
p2866
aS'http://gz.lianjia.com/chengjiao/GZ0001895213.html'
p2867
aS'http://gz.lianjia.com/chengjiao/GZ0001572187.html'
p2868
aS'http://gz.lianjia.com/chengjiao/GZ0001655986.html'
p2869
aS'http://gz.lianjia.com/chengjiao/GZ0002000665.html'
p2870
aS'http://gz.lianjia.com/chengjiao/GZ0002168252.html'
p2871
aS'http://gz.lianjia.com/chengjiao/GZ0001991933.html'
p2872
aS'http://gz.lianjia.com/chengjiao/GZ0002540100.html'
p2873
aS'http://gz.lianjia.com/chengjiao/GZ0002550003.html'
p2874
aS'http://gz.lianjia.com/chengjiao/GZ0001988796.html'
p2875
aS'http://gz.lianjia.com/chengjiao/GZ0001371351.html'
p2876
aS'http://gz.lianjia.com/chengjiao/GZ0001563219.html'
p2877
aS'http://gz.lianjia.com/chengjiao/GZ0001857012.html'
p2878
aS'http://gz.lianjia.com/chengjiao/GZ0001834397.html'
p2879
aS'http://gz.lianjia.com/chengjiao/GZ0001260524.html'
p2880
aS'http://gz.lianjia.com/chengjiao/GZ0001550736.html'
p2881
aS'http://gz.lianjia.com/chengjiao/GZ0001877404.html'
p2882
aS'http://gz.lianjia.com/chengjiao/GZ0001288664.html'
p2883
aS'http://gz.lianjia.com/chengjiao/GZ0002399922.html'
p2884
aS'http://gz.lianjia.com/chengjiao/GZ0001696049.html'
p2885
aS'http://gz.lianjia.com/chengjiao/GZ0001698424.html'
p2886
aS'http://gz.lianjia.com/chengjiao/GZ0002199973.html'
p2887
aS'http://gz.lianjia.com/chengjiao/GZ0002201616.html'
p2888
aS'http://gz.lianjia.com/chengjiao/GZ0002411663.html'
p2889
aS'http://gz.lianjia.com/chengjiao/GZ0001911137.html'
p2890
aS'http://gz.lianjia.com/chengjiao/GZ0002072569.html'
p2891
aS'http://gz.lianjia.com/chengjiao/GZ0001633363.html'
p2892
aS'http://gz.lianjia.com/chengjiao/GZ0001832190.html'
p2893
aS'http://gz.lianjia.com/chengjiao/GZ0001685788.html'
p2894
aS'http://gz.lianjia.com/chengjiao/GZ0001485410.html'
p2895
aS'http://gz.lianjia.com/chengjiao/GZ0001525770.html'
p2896
aS'http://gz.lianjia.com/chengjiao/GZ0001786091.html'
p2897
aS'http://gz.lianjia.com/chengjiao/GZ0001975090.html'
p2898
aS'http://gz.lianjia.com/chengjiao/GZ0001523453.html'
p2899
aS'http://gz.lianjia.com/chengjiao/GZ0002538733.html'
p2900
aS'http://gz.lianjia.com/chengjiao/GZ0002184589.html'
p2901
aS'http://gz.lianjia.com/chengjiao/GZ0001730852.html'
p2902
aS'http://gz.lianjia.com/chengjiao/GZ0001662130.html'
p2903
aS'http://gz.lianjia.com/chengjiao/GZ0001228672.html'
p2904
aS'http://gz.lianjia.com/chengjiao/GZ0001877567.html'
p2905
aS'http://gz.lianjia.com/chengjiao/GZ0001667427.html'
p2906
aS'http://gz.lianjia.com/chengjiao/GZ0002295553.html'
p2907
aS'http://gz.lianjia.com/chengjiao/GZ0002006841.html'
p2908
aS'http://gz.lianjia.com/chengjiao/GZ0001573442.html'
p2909
aS'http://gz.lianjia.com/chengjiao/GZ0001504491.html'
p2910
aS'http://gz.lianjia.com/chengjiao/GZ0002245183.html'
p2911
aS'http://gz.lianjia.com/chengjiao/GZ0001765009.html'
p2912
aS'http://gz.lianjia.com/chengjiao/GZ0002281171.html'
p2913
aS'http://gz.lianjia.com/chengjiao/GZ0002348544.html'
p2914
aS'http://gz.lianjia.com/chengjiao/GZ0001753736.html'
p2915
aS'http://gz.lianjia.com/chengjiao/GZ0001682530.html'
p2916
aS'http://gz.lianjia.com/chengjiao/GZ0002432989.html'
p2917
aS'http://gz.lianjia.com/chengjiao/GZ0001448803.html'
p2918
aS'http://gz.lianjia.com/chengjiao/GZ0002444880.html'
p2919
aS'http://gz.lianjia.com/chengjiao/GZ0001796655.html'
p2920
aS'http://gz.lianjia.com/chengjiao/GZ0002408835.html'
p2921
aS'http://gz.lianjia.com/chengjiao/GZ0001968959.html'
p2922
aS'http://gz.lianjia.com/chengjiao/GZ0001990245.html'
p2923
aS'http://gz.lianjia.com/chengjiao/GZ0001508586.html'
p2924
aS'http://gz.lianjia.com/chengjiao/GZ0002248653.html'
p2925
aS'http://gz.lianjia.com/chengjiao/GZ0001660894.html'
p2926
aS'http://gz.lianjia.com/chengjiao/GZ0001910371.html'
p2927
aS'http://gz.lianjia.com/chengjiao/GZ0002246991.html'
p2928
aS'http://gz.lianjia.com/chengjiao/GZ0002423918.html'
p2929
aS'http://gz.lianjia.com/chengjiao/GZ0002133605.html'
p2930
aS'http://gz.lianjia.com/chengjiao/GZ0001987420.html'
p2931
aS'http://gz.lianjia.com/chengjiao/GZ0002067924.html'
p2932
aS'http://gz.lianjia.com/chengjiao/GZ0002118159.html'
p2933
aS'http://gz.lianjia.com/chengjiao/GZ0001988943.html'
p2934
aS'http://gz.lianjia.com/chengjiao/GZ0002049645.html'
p2935
aS'http://gz.lianjia.com/chengjiao/GZ0002257098.html'
p2936
aS'http://gz.lianjia.com/chengjiao/GZ0002390644.html'
p2937
aS'http://gz.lianjia.com/chengjiao/GZ0002198396.html'
p2938
aS'http://gz.lianjia.com/chengjiao/GZ0002525790.html'
p2939
aS'http://gz.lianjia.com/chengjiao/GZ0002448400.html'
p2940
aS'http://gz.lianjia.com/chengjiao/GZ0001788771.html'
p2941
aS'http://gz.lianjia.com/chengjiao/GZ0002055462.html'
p2942
aS'http://gz.lianjia.com/chengjiao/GZ0002090127.html'
p2943
aS'http://gz.lianjia.com/chengjiao/GZ0001829794.html'
p2944
aS'http://gz.lianjia.com/chengjiao/GZ0002002730.html'
p2945
aS'http://gz.lianjia.com/chengjiao/GZ0001746456.html'
p2946
aS'http://gz.lianjia.com/chengjiao/GZ0002088707.html'
p2947
aS'http://gz.lianjia.com/chengjiao/GZ0002177794.html'
p2948
aS'http://gz.lianjia.com/chengjiao/GZ0001392322.html'
p2949
aS'http://gz.lianjia.com/chengjiao/GZ0002309921.html'
p2950
aS'http://gz.lianjia.com/chengjiao/GZ0001937619.html'
p2951
aS'http://gz.lianjia.com/chengjiao/GZ0001634138.html'
p2952
aS'http://gz.lianjia.com/chengjiao/GZ0002201108.html'
p2953
aS'http://gz.lianjia.com/chengjiao/GZ0001660929.html'
p2954
aS'http://gz.lianjia.com/chengjiao/GZ0002233435.html'
p2955
aS'http://gz.lianjia.com/chengjiao/GZ0002106574.html'
p2956
aS'http://gz.lianjia.com/chengjiao/GZ0001383763.html'
p2957
aS'http://gz.lianjia.com/chengjiao/GZ0001674291.html'
p2958
aS'http://gz.lianjia.com/chengjiao/GZ0002456321.html'
p2959
aS'http://gz.lianjia.com/chengjiao/GZ0002186273.html'
p2960
aS'http://gz.lianjia.com/chengjiao/GZ0002185469.html'
p2961
aS'http://gz.lianjia.com/chengjiao/GZ0001574178.html'
p2962
aS'http://gz.lianjia.com/chengjiao/GZ0001965708.html'
p2963
aS'http://gz.lianjia.com/chengjiao/GZ0001783961.html'
p2964
aS'http://gz.lianjia.com/chengjiao/GZ0001270286.html'
p2965
aS'http://gz.lianjia.com/chengjiao/GZ0001612889.html'
p2966
aS'http://gz.lianjia.com/chengjiao/GZ0002246150.html'
p2967
aS'http://gz.lianjia.com/chengjiao/GZ0001633673.html'
p2968
aS'http://gz.lianjia.com/chengjiao/GZ0002576110.html'
p2969
aS'http://gz.lianjia.com/chengjiao/GZ0002185995.html'
p2970
aS'http://gz.lianjia.com/chengjiao/GZ0001389347.html'
p2971
aS'http://gz.lianjia.com/chengjiao/GZ0002438083.html'
p2972
aS'http://gz.lianjia.com/chengjiao/GZ0001959353.html'
p2973
aS'http://gz.lianjia.com/chengjiao/GZ0001612921.html'
p2974
aS'http://gz.lianjia.com/chengjiao/GZ0001723464.html'
p2975
aS'http://gz.lianjia.com/chengjiao/GZ0002329390.html'
p2976
aS'http://gz.lianjia.com/chengjiao/GZ0001749160.html'
p2977
aS'http://gz.lianjia.com/chengjiao/GZ0002168468.html'
p2978
aS'http://gz.lianjia.com/chengjiao/GZ0002334377.html'
p2979
aS'http://gz.lianjia.com/chengjiao/GZ0002412250.html'
p2980
aS'http://gz.lianjia.com/chengjiao/GZ0002552089.html'
p2981
aS'http://gz.lianjia.com/chengjiao/GZ0001969366.html'
p2982
aS'http://gz.lianjia.com/chengjiao/GZ0002235428.html'
p2983
aS'http://gz.lianjia.com/chengjiao/GZ0002275054.html'
p2984
aS'http://gz.lianjia.com/chengjiao/GZ0001436307.html'
p2985
aS'http://gz.lianjia.com/chengjiao/GZ0001972266.html'
p2986
aS'http://gz.lianjia.com/chengjiao/GZ0001638202.html'
p2987
aS'http://gz.lianjia.com/chengjiao/GZ0001916213.html'
p2988
aS'http://gz.lianjia.com/chengjiao/GZ0002334865.html'
p2989
aS'http://gz.lianjia.com/chengjiao/GZ0001454191.html'
p2990
aS'http://gz.lianjia.com/chengjiao/GZ0001973888.html'
p2991
aS'http://gz.lianjia.com/chengjiao/GZ0001913609.html'
p2992
aS'http://gz.lianjia.com/chengjiao/GZ0002326777.html'
p2993
aS'http://gz.lianjia.com/chengjiao/GZ0001764966.html'
p2994
aS'http://gz.lianjia.com/chengjiao/GZ0002443270.html'
p2995
aS'http://gz.lianjia.com/chengjiao/GZ0001895654.html'
p2996
aS'http://gz.lianjia.com/chengjiao/GZ0001553311.html'
p2997
aS'http://gz.lianjia.com/chengjiao/GZ0001749216.html'
p2998
aS'http://gz.lianjia.com/chengjiao/GZ0001899705.html'
p2999
aS'http://gz.lianjia.com/chengjiao/GZ0001934454.html'
p3000
aS'http://gz.lianjia.com/chengjiao/GZ0001797686.html'
p3001
aS'http://gz.lianjia.com/chengjiao/GZ0001710818.html'
p3002
aS'http://gz.lianjia.com/chengjiao/GZ0002186721.html'
p3003
aS'http://gz.lianjia.com/chengjiao/GZ0001701280.html'
p3004
aS'http://gz.lianjia.com/chengjiao/GZ0001466542.html'
p3005
aS'http://gz.lianjia.com/chengjiao/GZ0002345608.html'
p3006
aS'http://gz.lianjia.com/chengjiao/GZ0001666219.html'
p3007
aS'http://gz.lianjia.com/chengjiao/GZ0001944692.html'
p3008
aS'http://gz.lianjia.com/chengjiao/GZ0002335369.html'
p3009
aS'http://gz.lianjia.com/chengjiao/GZ0002190506.html'
p3010
aS'http://gz.lianjia.com/chengjiao/GZ0002153062.html'
p3011
aS'http://gz.lianjia.com/chengjiao/GZ0002042470.html'
p3012
aS'http://gz.lianjia.com/chengjiao/GZ0002186661.html'
p3013
aS'http://gz.lianjia.com/chengjiao/GZ0002332984.html'
p3014
aS'http://gz.lianjia.com/chengjiao/GZ0001822410.html'
p3015
aS'http://gz.lianjia.com/chengjiao/GZ0001867676.html'
p3016
aS'http://gz.lianjia.com/chengjiao/GZ0002235057.html'
p3017
aS'http://gz.lianjia.com/chengjiao/GZ0001766995.html'
p3018
aS'http://gz.lianjia.com/chengjiao/GZ0002171321.html'
p3019
aS'http://gz.lianjia.com/chengjiao/GZ0002187190.html'
p3020
aS'http://gz.lianjia.com/chengjiao/GZ0002326742.html'
p3021
aS'http://gz.lianjia.com/chengjiao/GZ0002185270.html'
p3022
aS'http://gz.lianjia.com/chengjiao/GZ0002539600.html'
p3023
aS'http://gz.lianjia.com/chengjiao/GZ0002238744.html'
p3024
aS'http://gz.lianjia.com/chengjiao/GZ0002202387.html'
p3025
aS'http://gz.lianjia.com/chengjiao/GZ0002391934.html'
p3026
aS'http://gz.lianjia.com/chengjiao/GZ0002536793.html'
p3027
aS'http://gz.lianjia.com/chengjiao/GZ0002107539.html'
p3028
aS'http://gz.lianjia.com/chengjiao/GZ0002182541.html'
p3029
aS'http://gz.lianjia.com/chengjiao/GZ0001605139.html'
p3030
aS'http://gz.lianjia.com/chengjiao/GZ0001665959.html'
p3031
aS'http://gz.lianjia.com/chengjiao/GZ0001479270.html'
p3032
aS'http://gz.lianjia.com/chengjiao/GZ0002249237.html'
p3033
aS'http://gz.lianjia.com/chengjiao/GZ0002333058.html'
p3034
aS'http://gz.lianjia.com/chengjiao/GZ0001450838.html'
p3035
aS'http://gz.lianjia.com/chengjiao/GZ0001275918.html'
p3036
aS'http://gz.lianjia.com/chengjiao/GZ0001449485.html'
p3037
aS'http://gz.lianjia.com/chengjiao/GZ0001466349.html'
p3038
aS'http://gz.lianjia.com/chengjiao/GZ0002132856.html'
p3039
aS'http://gz.lianjia.com/chengjiao/GZ0001751099.html'
p3040
aS'http://gz.lianjia.com/chengjiao/GZ0001627258.html'
p3041
aS'http://gz.lianjia.com/chengjiao/GZ0001682843.html'
p3042
aS'http://gz.lianjia.com/chengjiao/GZ0002234536.html'
p3043
aS'http://gz.lianjia.com/chengjiao/GZ0001829308.html'
p3044
aS'http://gz.lianjia.com/chengjiao/GZ0002554400.html'
p3045
aS'http://gz.lianjia.com/chengjiao/GZ0002185460.html'
p3046
aS'http://gz.lianjia.com/chengjiao/GZ0001569344.html'
p3047
aS'http://gz.lianjia.com/chengjiao/GZ0001488586.html'
p3048
aS'http://gz.lianjia.com/chengjiao/GZ0001635920.html'
p3049
aS'http://gz.lianjia.com/chengjiao/GZ0002549930.html'
p3050
aS'http://gz.lianjia.com/chengjiao/GZ0001681433.html'
p3051
aS'http://gz.lianjia.com/chengjiao/GZ0001553097.html'
p3052
aS'http://gz.lianjia.com/chengjiao/GZ0001692761.html'
p3053
aS'http://gz.lianjia.com/chengjiao/GZ0002074049.html'
p3054
aS'http://gz.lianjia.com/chengjiao/GZ0002255838.html'
p3055
aS'http://gz.lianjia.com/chengjiao/GZ0001558639.html'
p3056
aS'http://gz.lianjia.com/chengjiao/GZ0001768580.html'
p3057
aS'http://gz.lianjia.com/chengjiao/GZ0002536941.html'
p3058
aS'http://gz.lianjia.com/chengjiao/GZ0001532443.html'
p3059
aS'http://gz.lianjia.com/chengjiao/GZ0001518628.html'
p3060
aS'http://gz.lianjia.com/chengjiao/GZ0001971574.html'
p3061
aS'http://gz.lianjia.com/chengjiao/GZ0002186678.html'
p3062
aS'http://gz.lianjia.com/chengjiao/GZ0001617929.html'
p3063
aS'http://gz.lianjia.com/chengjiao/GZ0002097859.html'
p3064
aS'http://gz.lianjia.com/chengjiao/GZ0001948437.html'
p3065
aS'http://gz.lianjia.com/chengjiao/GZ0002325689.html'
p3066
aS'http://gz.lianjia.com/chengjiao/GZ0001836033.html'
p3067
aS'http://gz.lianjia.com/chengjiao/GZ0002234849.html'
p3068
aS'http://gz.lianjia.com/chengjiao/GZ0001987296.html'
p3069
aS'http://gz.lianjia.com/chengjiao/GZ0002255065.html'
p3070
aS'http://gz.lianjia.com/chengjiao/GZ0001328189.html'
p3071
aS'http://gz.lianjia.com/chengjiao/GZ0002447065.html'
p3072
aS'http://gz.lianjia.com/chengjiao/GZ0002458832.html'
p3073
aS'http://gz.lianjia.com/chengjiao/GZ0002336053.html'
p3074
aS'http://gz.lianjia.com/chengjiao/GZ0001389835.html'
p3075
aS'http://gz.lianjia.com/chengjiao/GZ0001914274.html'
p3076
aS'http://gz.lianjia.com/chengjiao/GZ0002038580.html'
p3077
aS'http://gz.lianjia.com/chengjiao/GZ0002533007.html'
p3078
aS'http://gz.lianjia.com/chengjiao/GZ0002234917.html'
p3079
aS'http://gz.lianjia.com/chengjiao/GZ0001784739.html'
p3080
aS'http://gz.lianjia.com/chengjiao/GZ0001242732.html'
p3081
aS'http://gz.lianjia.com/chengjiao/GZ0001970716.html'
p3082
aS'http://gz.lianjia.com/chengjiao/GZ0002547430.html'
p3083
aS'http://gz.lianjia.com/chengjiao/GZ0001275573.html'
p3084
aS'http://gz.lianjia.com/chengjiao/GZ0002048148.html'
p3085
aS'http://gz.lianjia.com/chengjiao/GZ0002088862.html'
p3086
aS'http://gz.lianjia.com/chengjiao/GZ0002158818.html'
p3087
aS'http://gz.lianjia.com/chengjiao/GZ0002105653.html'
p3088
aS'http://gz.lianjia.com/chengjiao/GZ0002298166.html'
p3089
aS'http://gz.lianjia.com/chengjiao/GZ0002056087.html'
p3090
aS'http://gz.lianjia.com/chengjiao/GZ0001466972.html'
p3091
aS'http://gz.lianjia.com/chengjiao/GZ0001689527.html'
p3092
aS'http://gz.lianjia.com/chengjiao/GZ0002426739.html'
p3093
aS'http://gz.lianjia.com/chengjiao/GZ0001262057.html'
p3094
aS'http://gz.lianjia.com/chengjiao/GZ0001819886.html'
p3095
aS'http://gz.lianjia.com/chengjiao/GZ0001756010.html'
p3096
aS'http://gz.lianjia.com/chengjiao/GZ0001900058.html'
p3097
aS'http://gz.lianjia.com/chengjiao/GZ0002238335.html'
p3098
aS'http://gz.lianjia.com/chengjiao/GZ0001658984.html'
p3099
aS'http://gz.lianjia.com/chengjiao/GZ0002403135.html'
p3100
aS'http://gz.lianjia.com/chengjiao/GZ0001793347.html'
p3101
aS'http://gz.lianjia.com/chengjiao/GZ0001494786.html'
p3102
aS'http://gz.lianjia.com/chengjiao/GZ0002269202.html'
p3103
aS'http://gz.lianjia.com/chengjiao/GZ0001513601.html'
p3104
aS'http://gz.lianjia.com/chengjiao/GZ0001861491.html'
p3105
aS'http://gz.lianjia.com/chengjiao/GZ0001653483.html'
p3106
aS'http://gz.lianjia.com/chengjiao/GZ0001681352.html'
p3107
aS'http://gz.lianjia.com/chengjiao/GZ0001433330.html'
p3108
aS'http://gz.lianjia.com/chengjiao/GZ0001974605.html'
p3109
aS'http://gz.lianjia.com/chengjiao/GZ0002326821.html'
p3110
aS'http://gz.lianjia.com/chengjiao/GZ0001946634.html'
p3111
aS'http://gz.lianjia.com/chengjiao/GZ0001746280.html'
p3112
aS'http://gz.lianjia.com/chengjiao/GZ0002057866.html'
p3113
aS'http://gz.lianjia.com/chengjiao/GZ0001279297.html'
p3114
aS'http://gz.lianjia.com/chengjiao/GZ0002132064.html'
p3115
aS'http://gz.lianjia.com/chengjiao/GZ0001653591.html'
p3116
aS'http://gz.lianjia.com/chengjiao/GZ0001443990.html'
p3117
aS'http://gz.lianjia.com/chengjiao/GZ0001902773.html'
p3118
aS'http://gz.lianjia.com/chengjiao/GZ0001718898.html'
p3119
aS'http://gz.lianjia.com/chengjiao/GZ0002447125.html'
p3120
aS'http://gz.lianjia.com/chengjiao/GZ0001375535.html'
p3121
aS'http://gz.lianjia.com/chengjiao/GZ0002250291.html'
p3122
aS'http://gz.lianjia.com/chengjiao/GZ0001484757.html'
p3123
aS'http://gz.lianjia.com/chengjiao/GZ0002308992.html'
p3124
aS'http://gz.lianjia.com/chengjiao/GZ0001343593.html'
p3125
aS'http://gz.lianjia.com/chengjiao/GZ0001610133.html'
p3126
aS'http://gz.lianjia.com/chengjiao/GZ0002246088.html'
p3127
aS'http://gz.lianjia.com/chengjiao/GZ0002377079.html'
p3128
aS'http://gz.lianjia.com/chengjiao/GZ0002527703.html'
p3129
aS'http://gz.lianjia.com/chengjiao/GZ0002185554.html'
p3130
aS'http://gz.lianjia.com/chengjiao/GZ0001976298.html'
p3131
aS'http://gz.lianjia.com/chengjiao/GZ0002262524.html'
p3132
aS'http://gz.lianjia.com/chengjiao/GZ0001779120.html'
p3133
aS'http://gz.lianjia.com/chengjiao/GZ0002256327.html'
p3134
aS'http://gz.lianjia.com/chengjiao/GZ0001370355.html'
p3135
aS'http://gz.lianjia.com/chengjiao/GZ0002398882.html'
p3136
aS'http://gz.lianjia.com/chengjiao/GZ0001347611.html'
p3137
aS'http://gz.lianjia.com/chengjiao/GZ0002159383.html'
p3138
aS'http://gz.lianjia.com/chengjiao/GZ0001934611.html'
p3139
aS'http://gz.lianjia.com/chengjiao/GZ0001281557.html'
p3140
aS'http://gz.lianjia.com/chengjiao/GZ0002321787.html'
p3141
aS'http://gz.lianjia.com/chengjiao/GZ0002122987.html'
p3142
aS'http://gz.lianjia.com/chengjiao/GZ0001580887.html'
p3143
aS'http://gz.lianjia.com/chengjiao/GZ0001569650.html'
p3144
aS'http://gz.lianjia.com/chengjiao/GZ0001786654.html'
p3145
atp3146
Rp3147
.